Component: ARM Compiler 5.06 update 1 (build 61) Tool: armlink [4d35a8]

==============================================================================

Section Cross References

    delay.o(.ARM.exidx) refers to delay.o(i._ZN5Delay2MsEt) for i._ZN5Delay2MsEt
    delay.o(.ARM.exidx) refers to delay.o(i._ZN5Delay2UsEj) for i._ZN5Delay2UsEj
    delay.o(.ARM.exidx) refers to delay.o(i._ZN5Delay1SEj) for i._ZN5Delay1SEj
    f103_pwm.o(i._ZN3PWM10InitializeEP11TIM_TypeDefbbbbth) refers to stm32f10x_gpio.o(i.GPIO_PinRemapConfig) for GPIO_PinRemapConfig
    f103_pwm.o(i._ZN3PWM10InitializeEP11TIM_TypeDefbbbbth) refers to stm32f10x_rcc.o(i.RCC_APB2PeriphClockCmd) for RCC_APB2PeriphClockCmd
    f103_pwm.o(i._ZN3PWM10InitializeEP11TIM_TypeDefbbbbth) refers to stm32f10x_rcc.o(i.RCC_APB1PeriphClockCmd) for RCC_APB1PeriphClockCmd
    f103_pwm.o(i._ZN3PWM10InitializeEP11TIM_TypeDefbbbbth) refers to stm32f10x_gpio.o(i.GPIO_Init) for GPIO_Init
    f103_pwm.o(i._ZN3PWM10InitializeEP11TIM_TypeDefbbbbth) refers to stm32f10x_tim.o(i.TIM_TimeBaseInit) for TIM_TimeBaseInit
    f103_pwm.o(i._ZN3PWM10InitializeEP11TIM_TypeDefbbbbth) refers to stm32f10x_tim.o(i.TIM_OC1Init) for TIM_OC1Init
    f103_pwm.o(i._ZN3PWM10InitializeEP11TIM_TypeDefbbbbth) refers to stm32f10x_tim.o(i.TIM_OC2Init) for TIM_OC2Init
    f103_pwm.o(i._ZN3PWM10InitializeEP11TIM_TypeDefbbbbth) refers to stm32f10x_tim.o(i.TIM_OC3Init) for TIM_OC3Init
    f103_pwm.o(i._ZN3PWM10InitializeEP11TIM_TypeDefbbbbth) refers to stm32f10x_tim.o(i.TIM_OC4Init) for TIM_OC4Init
    f103_pwm.o(i._ZN3PWM10InitializeEP11TIM_TypeDefbbbbth) refers to stm32f10x_tim.o(i.TIM_OC1PreloadConfig) for TIM_OC1PreloadConfig
    f103_pwm.o(i._ZN3PWM10InitializeEP11TIM_TypeDefbbbbth) refers to stm32f10x_tim.o(i.TIM_OC2PreloadConfig) for TIM_OC2PreloadConfig
    f103_pwm.o(i._ZN3PWM10InitializeEP11TIM_TypeDefbbbbth) refers to stm32f10x_tim.o(i.TIM_OC3PreloadConfig) for TIM_OC3PreloadConfig
    f103_pwm.o(i._ZN3PWM10InitializeEP11TIM_TypeDefbbbbth) refers to stm32f10x_tim.o(i.TIM_OC4PreloadConfig) for TIM_OC4PreloadConfig
    f103_pwm.o(i._ZN3PWM10InitializeEP11TIM_TypeDefbbbbth) refers to stm32f10x_tim.o(i.TIM_Cmd) for TIM_Cmd
    f103_pwm.o(i._ZN3PWM7SetDutyEffff) refers to ffltui.o(.text) for __aeabi_ui2f
    f103_pwm.o(i._ZN3PWM7SetDutyEffff) refers to fmul.o(.text) for __aeabi_fmul
    f103_pwm.o(i._ZN3PWM7SetDutyEffff) refers to fdiv.o(.text) for __aeabi_fdiv
    f103_pwm.o(i._ZN3PWM7SetDutyEffff) refers to ffixui.o(.text) for __aeabi_f2uiz
    f103_pwm.o(i._ZN3PWM7SetDutyEhf) refers to ffltui.o(.text) for __aeabi_ui2f
    f103_pwm.o(i._ZN3PWM7SetDutyEhf) refers to fmul.o(.text) for __aeabi_fmul
    f103_pwm.o(i._ZN3PWM7SetDutyEhf) refers to fdiv.o(.text) for __aeabi_fdiv
    f103_pwm.o(i._ZN3PWM7SetDutyEhf) refers to ffixui.o(.text) for __aeabi_f2uiz
    f103_pwm.o(i._ZN3PWMC1EP11TIM_TypeDefbbbbth) refers to f103_pwm.o(i._ZN3PWM10InitializeEP11TIM_TypeDefbbbbth) for PWM::Initialize(TIM_TypeDef*, bool, bool, bool, bool, unsigned short, unsigned char)
    f103_pwm.o(.ARM.exidx) refers to f103_pwm.o(i._ZN3PWM10InitializeEP11TIM_TypeDefbbbbth) for i._ZN3PWM10InitializeEP11TIM_TypeDefbbbbth
    f103_pwm.o(.ARM.exidx) refers to f103_pwm.o(i._ZN3PWMC1EP11TIM_TypeDefbbbbth) for i._ZN3PWMC1EP11TIM_TypeDefbbbbth
    f103_pwm.o(.ARM.exidx) refers to f103_pwm.o(i._ZN3PWM7SetDutyEffff) for i._ZN3PWM7SetDutyEffff
    f103_pwm.o(.ARM.exidx) refers to f103_pwm.o(i._ZN3PWM7SetDutyEhf) for i._ZN3PWM7SetDutyEhf
    gpio.o(i._ZN4GPIO10ChangeModeE16GPIOMode_TypeDef) refers to stm32f10x_gpio.o(i.GPIO_Init) for GPIO_Init
    gpio.o(i._ZN4GPIO10ChangeModeE16GPIOMode_TypeDef) refers to gpio.o(.constdata) for GPIO::mPin
    gpio.o(i._ZN4GPIO17RCC_ConfigurationEv) refers to stm32f10x_rcc.o(i.RCC_APB2PeriphClockCmd) for RCC_APB2PeriphClockCmd
    gpio.o(i._ZN4GPIO6ToggleEv) refers to stm32f10x_gpio.o(i.GPIO_ReadInputDataBit) for GPIO_ReadInputDataBit
    gpio.o(i._ZN4GPIO6ToggleEv) refers to stm32f10x_gpio.o(i.GPIO_ResetBits) for GPIO_ResetBits
    gpio.o(i._ZN4GPIO6ToggleEv) refers to stm32f10x_gpio.o(i.GPIO_SetBits) for GPIO_SetBits
    gpio.o(i._ZN4GPIO6ToggleEv) refers to gpio.o(.constdata) for GPIO::mPin
    gpio.o(i._ZN4GPIO8GetLevelEv) refers to stm32f10x_gpio.o(i.GPIO_ReadInputDataBit) for GPIO_ReadInputDataBit
    gpio.o(i._ZN4GPIO8GetLevelEv) refers to gpio.o(.constdata) for GPIO::mPin
    gpio.o(i._ZN4GPIO8SetLevelEh) refers to stm32f10x_gpio.o(i.GPIO_SetBits) for GPIO_SetBits
    gpio.o(i._ZN4GPIO8SetLevelEh) refers to stm32f10x_gpio.o(i.GPIO_ResetBits) for GPIO_ResetBits
    gpio.o(i._ZN4GPIO8SetLevelEh) refers to gpio.o(.constdata) for GPIO::mPin
    gpio.o(i._ZN4GPIOC1EP12GPIO_TypeDeft16GPIOMode_TypeDef17GPIOSpeed_TypeDef) refers to gpio.o(i._ZN4GPIO17RCC_ConfigurationEv) for GPIO::RCC_Configuration()
    gpio.o(i._ZN4GPIOC1EP12GPIO_TypeDeft16GPIOMode_TypeDef17GPIOSpeed_TypeDef) refers to stm32f10x_gpio.o(i.GPIO_Init) for GPIO_Init
    gpio.o(i._ZN4GPIOC1EP12GPIO_TypeDeft16GPIOMode_TypeDef17GPIOSpeed_TypeDef) refers to gpio.o(.constdata) for GPIO::mPin
    gpio.o(.ARM.exidx) refers to gpio.o(i._ZN4GPIO17RCC_ConfigurationEv) for i._ZN4GPIO17RCC_ConfigurationEv
    gpio.o(.ARM.exidx) refers to gpio.o(i._ZN4GPIOC1EP12GPIO_TypeDeft16GPIOMode_TypeDef17GPIOSpeed_TypeDef) for i._ZN4GPIOC1EP12GPIO_TypeDeft16GPIOMode_TypeDef17GPIOSpeed_TypeDef
    gpio.o(.ARM.exidx) refers to gpio.o(i._ZN4GPIO8SetLevelEh) for i._ZN4GPIO8SetLevelEh
    gpio.o(.ARM.exidx) refers to gpio.o(i._ZN4GPIO8GetLevelEv) for i._ZN4GPIO8GetLevelEv
    gpio.o(.ARM.exidx) refers to gpio.o(i._ZN4GPIO6ToggleEv) for i._ZN4GPIO6ToggleEv
    gpio.o(.ARM.exidx) refers to gpio.o(i._ZN4GPIO10ChangeModeE16GPIOMode_TypeDef) for i._ZN4GPIO10ChangeModeE16GPIOMode_TypeDef
    i2c.o(i._ZN3I2C10AddCommandEhhPhhS0_hbP6Sensor) refers to i2c.o(t._ZN10FIFOBufferI18I2C_Command_StructLt40EE3PutERKS0_) for FIFOBuffer<I2C_Command_Struct, (unsigned short)40>::Put(const I2C_Command_Struct&)
    i2c.o(i._ZN3I2C11I2CGPIOInitEtt) refers to stm32f10x_rcc.o(i.RCC_APB2PeriphClockCmd) for RCC_APB2PeriphClockCmd
    i2c.o(i._ZN3I2C11I2CGPIOInitEtt) refers to stm32f10x_gpio.o(i.GPIO_PinRemapConfig) for GPIO_PinRemapConfig
    i2c.o(i._ZN3I2C11I2CGPIOInitEtt) refers to stm32f10x_gpio.o(i.GPIO_Init) for GPIO_Init
    i2c.o(i._ZN3I2C12ClearCommandEv) refers to i2c.o(t._ZN10FIFOBufferI18I2C_Command_StructLt40EE5ClearEv) for FIFOBuffer<I2C_Command_Struct, (unsigned short)40>::Clear()
    i2c.o(i._ZN3I2C13I2CGPIODeInitEtt) refers to stm32f10x_gpio.o(i.GPIO_Init) for GPIO_Init
    i2c.o(i._ZN3I2C13StartCMDQueueEv) refers to i2c.o(i._ZN3I2C10Soft_ResetEv) for I2C::Soft_Reset()
    i2c.o(i._ZN3I2C13StartCMDQueueEv) refers to i2c.o(t._ZN10FIFOBufferI18I2C_Command_StructLt40EE4SizeEv) for FIFOBuffer<I2C_Command_Struct, (unsigned short)40>::Size()
    i2c.o(i._ZN3I2C13StartCMDQueueEv) refers to stm32f10x_i2c.o(i.I2C_GetFlagStatus) for I2C_GetFlagStatus
    i2c.o(i._ZN3I2C13StartCMDQueueEv) refers to i2c.o(t._ZN10FIFOBufferI18I2C_Command_StructLt40EE3GetERS0_) for FIFOBuffer<I2C_Command_Struct, (unsigned short)40>::Get(I2C_Command_Struct&)
    i2c.o(i._ZN3I2C13StartCMDQueueEv) refers to stm32f10x_i2c.o(i.I2C_AcknowledgeConfig) for I2C_AcknowledgeConfig
    i2c.o(i._ZN3I2C13StartCMDQueueEv) refers to stm32f10x_i2c.o(i.I2C_GenerateSTART) for I2C_GenerateSTART
    i2c.o(i._ZN3I2C18I2C_CHACK_BUSY_FIXEjtt) refers to stm32f10x_rcc.o(i.RCC_APB1PeriphClockCmd) for RCC_APB1PeriphClockCmd
    i2c.o(i._ZN3I2C18I2C_CHACK_BUSY_FIXEjtt) refers to stm32f10x_rcc.o(i.RCC_APB2PeriphClockCmd) for RCC_APB2PeriphClockCmd
    i2c.o(i._ZN3I2C18I2C_CHACK_BUSY_FIXEjtt) refers to stm32f10x_gpio.o(i.GPIO_Init) for GPIO_Init
    i2c.o(i._ZN3I2C18I2C_CHACK_BUSY_FIXEjtt) refers to stm32f10x_gpio.o(i.GPIO_ResetBits) for GPIO_ResetBits
    i2c.o(i._ZN3I2C18I2C_CHACK_BUSY_FIXEjtt) refers to i2c.o(i._ZN3I2C7DelayUsEj) for I2C::DelayUs(unsigned)
    i2c.o(i._ZN3I2C18I2C_CHACK_BUSY_FIXEjtt) refers to stm32f10x_gpio.o(i.GPIO_SetBits) for GPIO_SetBits
    i2c.o(i._ZN3I2C18I2C_CHACK_BUSY_FIXEjtt) refers to i2c.o(i._ZN3I2C13I2CGPIODeInitEtt) for I2C::I2CGPIODeInit(unsigned short, unsigned short)
    i2c.o(i._ZN3I2C18I2C_CHACK_BUSY_FIXEjtt) refers to stm32f10x_rcc.o(i.RCC_APB1PeriphResetCmd) for RCC_APB1PeriphResetCmd
    i2c.o(i._ZN3I2C18I2C_CHACK_BUSY_FIXEjtt) refers to stm32f10x_i2c.o(i.I2C_GetFlagStatus) for I2C_GetFlagStatus
    i2c.o(i._ZN3I2C20WaitTransmitCompleteEbbb) refers to i2c.o(i._ZN3I2C8IsSendOkEv) for I2C::IsSendOk()
    i2c.o(i._ZN3I2C20WaitTransmitCompleteEbbb) refers to i2c.o(i._ZN3I2C12ClearCommandEv) for I2C::ClearCommand()
    i2c.o(i._ZN3I2C20WaitTransmitCompleteEbbb) refers to i2c.o(i._ZN3I2C4InitEv) for I2C::Init()
    i2c.o(i._ZN3I2C20WaitTransmitCompleteEbbb) refers to i2c.o(i._ZN3I2C13StartCMDQueueEv) for I2C::StartCMDQueue()
    i2c.o(i._ZN3I2C4InitEv) refers to i2c.o(i._ZN3I2C12GetI2CNumberEv) for I2C::GetI2CNumber()
    i2c.o(i._ZN3I2C4InitEv) refers to i2c.o(i._ZN3I2C10Soft_ResetEv) for I2C::Soft_Reset()
    i2c.o(i._ZN3I2C4InitEv) refers to stm32f10x_dma.o(i.DMA_DeInit) for DMA_DeInit
    i2c.o(i._ZN3I2C4InitEv) refers to stm32f10x_rcc.o(i.RCC_APB1PeriphResetCmd) for RCC_APB1PeriphResetCmd
    i2c.o(i._ZN3I2C4InitEv) refers to stm32f10x_rcc.o(i.RCC_APB1PeriphClockCmd) for RCC_APB1PeriphClockCmd
    i2c.o(i._ZN3I2C4InitEv) refers to i2c.o(i._ZN3I2C18I2C_CHACK_BUSY_FIXEjtt) for I2C::I2C_CHACK_BUSY_FIX(unsigned, unsigned short, unsigned short)
    i2c.o(i._ZN3I2C4InitEv) refers to i2c.o(i._ZN3I2C11I2CGPIOInitEtt) for I2C::I2CGPIOInit(unsigned short, unsigned short)
    i2c.o(i._ZN3I2C4InitEv) refers to stm32f10x_i2c.o(i.I2C_Init) for I2C_Init
    i2c.o(i._ZN3I2C4InitEv) refers to stm32f10x_rcc.o(i.RCC_AHBPeriphClockCmd) for RCC_AHBPeriphClockCmd
    i2c.o(i._ZN3I2C4InitEv) refers to stm32f10x_dma.o(i.DMA_Init) for DMA_Init
    i2c.o(i._ZN3I2C4InitEv) refers to misc.o(i.NVIC_Init) for NVIC_Init
    i2c.o(i._ZN3I2C4InitEv) refers to interrupt.o(.data) for pI2C2
    i2c.o(i._ZN3I2C6DelaySEj) refers to delay.o(i._ZN5Delay1SEj) for Delay::S(unsigned)
    i2c.o(i._ZN3I2C7DelayMsEt) refers to delay.o(i._ZN5Delay2MsEt) for Delay::Ms(unsigned short)
    i2c.o(i._ZN3I2C7DelayUsEj) refers to delay.o(i._ZN5Delay2UsEj) for Delay::Us(unsigned)
    i2c.o(i._ZN3I2C8DmaRxIRQEv) refers to stm32f10x_dma.o(i.DMA_Cmd) for DMA_Cmd
    i2c.o(i._ZN3I2C8DmaRxIRQEv) refers to stm32f10x_i2c.o(i.I2C_GenerateSTOP) for I2C_GenerateSTOP
    i2c.o(i._ZN3I2C8DmaRxIRQEv) refers to i2c.o(t._ZN10FIFOBufferI18I2C_Command_StructLt40EE4SizeEv) for FIFOBuffer<I2C_Command_Struct, (unsigned short)40>::Size()
    i2c.o(i._ZN3I2C8DmaRxIRQEv) refers to i2c.o(t._ZN10FIFOBufferI18I2C_Command_StructLt40EE3GetERS0_) for FIFOBuffer<I2C_Command_Struct, (unsigned short)40>::Get(I2C_Command_Struct&)
    i2c.o(i._ZN3I2C8DmaRxIRQEv) refers to stm32f10x_i2c.o(i.I2C_GetLastEvent) for I2C_GetLastEvent
    i2c.o(i._ZN3I2C8DmaRxIRQEv) refers to stm32f10x_i2c.o(i.I2C_AcknowledgeConfig) for I2C_AcknowledgeConfig
    i2c.o(i._ZN3I2C8DmaRxIRQEv) refers to stm32f10x_i2c.o(i.I2C_GenerateSTART) for I2C_GenerateSTART
    i2c.o(i._ZN3I2C8ErrorIRQEv) refers to i2c.o(i._ZN3I2C10Soft_ResetEv) for I2C::Soft_Reset()
    i2c.o(i._ZN3I2C8EventIRQEv) refers to stm32f10x_i2c.o(i.I2C_GetLastEvent) for I2C_GetLastEvent
    i2c.o(i._ZN3I2C8EventIRQEv) refers to stm32f10x_i2c.o(i.I2C_Send7bitAddress) for I2C_Send7bitAddress
    i2c.o(i._ZN3I2C8EventIRQEv) refers to stm32f10x_dma.o(i.DMA_Init) for DMA_Init
    i2c.o(i._ZN3I2C8EventIRQEv) refers to stm32f10x_dma.o(i.DMA_Cmd) for DMA_Cmd
    i2c.o(i._ZN3I2C8EventIRQEv) refers to stm32f10x_i2c.o(i.I2C_SendData) for I2C_SendData
    i2c.o(i._ZN3I2C8EventIRQEv) refers to stm32f10x_i2c.o(i.I2C_AcknowledgeConfig) for I2C_AcknowledgeConfig
    i2c.o(i._ZN3I2C8EventIRQEv) refers to stm32f10x_i2c.o(i.I2C_GenerateSTOP) for I2C_GenerateSTOP
    i2c.o(i._ZN3I2C8EventIRQEv) refers to stm32f10x_i2c.o(i.I2C_ReceiveData) for I2C_ReceiveData
    i2c.o(i._ZN3I2C8EventIRQEv) refers to i2c.o(i._ZN6Sensor7UpdatedEv) for Sensor::Updated()
    i2c.o(i._ZN3I2C8EventIRQEv) refers to i2c.o(t._ZN10FIFOBufferI18I2C_Command_StructLt40EE4SizeEv) for FIFOBuffer<I2C_Command_Struct, (unsigned short)40>::Size()
    i2c.o(i._ZN3I2C8EventIRQEv) refers to i2c.o(t._ZN10FIFOBufferI18I2C_Command_StructLt40EE3GetERS0_) for FIFOBuffer<I2C_Command_Struct, (unsigned short)40>::Get(I2C_Command_Struct&)
    i2c.o(i._ZN3I2C8EventIRQEv) refers to stm32f10x_i2c.o(i.I2C_GenerateSTART) for I2C_GenerateSTART
    i2c.o(i._ZN3I2C8EventIRQEv) refers to stm32f10x_dma.o(i.DMA_GetCurrDataCounter) for DMA_GetCurrDataCounter
    i2c.o(i._ZN3I2C8EventIRQEv) refers to i2c.o(.data) for I2C_Status
    i2c.o(i._ZN3I2C8EventIRQEv) refers to i2c.o(i._ZN3I2C10Soft_ResetEv) for I2C::Soft_Reset()
    i2c.o(i._ZN3I2C8IsSendOkEv) refers to i2c.o(i._ZN3I2C8IsHealthEv) for I2C::IsHealth()
    i2c.o(i._ZN3I2C8IsSendOkEv) refers to i2c.o(t._ZN10FIFOBufferI18I2C_Command_StructLt40EE4SizeEv) for FIFOBuffer<I2C_Command_Struct, (unsigned short)40>::Size()
    i2c.o(i._ZN3I2CC1Ehbjhhhhhhhh) refers to i2c.o(t._ZN10FIFOBufferI18I2C_Command_StructLt40EEC1Ev) for FIFOBuffer<I2C_Command_Struct, (unsigned short)40>::FIFOBuffer()
    i2c.o(i._ZN3I2CC1Ehbjhhhhhhhh) refers to i2c.o(i._ZN3I2C4InitEv) for I2C::Init()
    i2c.o(i._ZN3I2CC1Ehbjhhhhhhhh) refers to misc.o(i.NVIC_PriorityGroupConfig) for NVIC_PriorityGroupConfig
    i2c.o(i._ZN3I2CC1Ehbjhhhhhhhh) refers to interrupt.o(.data) for pI2C1
    i2c.o(.ARM.exidx) refers to i2c.o(i._ZN3I2C10Soft_ResetEv) for i._ZN3I2C10Soft_ResetEv
    i2c.o(.ARM.exidx) refers to i2c.o(i._ZN3I2C13I2CGPIODeInitEtt) for i._ZN3I2C13I2CGPIODeInitEtt
    i2c.o(.ARM.exidx) refers to i2c.o(i._ZN3I2C11I2CGPIOInitEtt) for i._ZN3I2C11I2CGPIOInitEtt
    i2c.o(.ARM.exidx) refers to i2c.o(i._ZN3I2C7DelayUsEj) for i._ZN3I2C7DelayUsEj
    i2c.o(.ARM.exidx) refers to i2c.o(i._ZN3I2C18I2C_CHACK_BUSY_FIXEjtt) for i._ZN3I2C18I2C_CHACK_BUSY_FIXEjtt
    i2c.o(.ARM.exidx) refers to i2c.o(i._ZN3I2C7DelayMsEt) for i._ZN3I2C7DelayMsEt
    i2c.o(.ARM.exidx) refers to i2c.o(i._ZN3I2C6DelaySEj) for i._ZN3I2C6DelaySEj
    i2c.o(.ARM.exidx) refers to i2c.o(i._ZN3I2C12GetI2CNumberEv) for i._ZN3I2C12GetI2CNumberEv
    i2c.o(.ARM.exidx) refers to i2c.o(i._ZN3I2C4InitEv) for i._ZN3I2C4InitEv
    i2c.o(.ARM.exidx) refers to i2c.o(i._ZN3I2CC1Ehbjhhhhhhhh) for i._ZN3I2CC1Ehbjhhhhhhhh
    i2c.o(.ARM.exidx) refers to i2c.o(i._ZN3I2C8IsHealthEv) for i._ZN3I2C8IsHealthEv
    i2c.o(.ARM.exidx) refers to i2c.o(i._ZN3I2C8IsSendOkEv) for i._ZN3I2C8IsSendOkEv
    i2c.o(.ARM.exidx) refers to i2c.o(i._ZN3I2C13StartCMDQueueEv) for i._ZN3I2C13StartCMDQueueEv
    i2c.o(.ARM.exidx) refers to i2c.o(i._ZN3I2C12ClearCommandEv) for i._ZN3I2C12ClearCommandEv
    i2c.o(.ARM.exidx) refers to i2c.o(i._ZN3I2C20WaitTransmitCompleteEbbb) for i._ZN3I2C20WaitTransmitCompleteEbbb
    i2c.o(.ARM.exidx) refers to i2c.o(i._ZN3I2C10AddCommandEhhPhhS0_hbP6Sensor) for i._ZN3I2C10AddCommandEhhPhhS0_hbP6Sensor
    i2c.o(.ARM.exidx) refers to i2c.o(i._ZN3I2C8EventIRQEv) for i._ZN3I2C8EventIRQEv
    i2c.o(.ARM.exidx) refers to i2c.o(i._ZN3I2C8ErrorIRQEv) for i._ZN3I2C8ErrorIRQEv
    i2c.o(.ARM.exidx) refers to i2c.o(i._ZN3I2C8DmaTxIRQEv) for i._ZN3I2C8DmaTxIRQEv
    i2c.o(.ARM.exidx) refers to i2c.o(i._ZN3I2C8DmaRxIRQEv) for i._ZN3I2C8DmaRxIRQEv
    interrupt.o(i.DMA1_Channel2_IRQHandler) refers to usart.o(i._ZN5USART6DmaIrqEv) for USART::DmaIrq()
    interrupt.o(i.DMA1_Channel2_IRQHandler) refers to interrupt.o(.data) for pUSART3
    interrupt.o(i.DMA1_Channel4_IRQHandler) refers to usart.o(i._ZN5USART6DmaIrqEv) for USART::DmaIrq()
    interrupt.o(i.DMA1_Channel4_IRQHandler) refers to i2c.o(i._ZN3I2C8DmaTxIRQEv) for I2C::DmaTxIRQ()
    interrupt.o(i.DMA1_Channel4_IRQHandler) refers to interrupt.o(.data) for pUSART1
    interrupt.o(i.DMA1_Channel5_IRQHandler) refers to i2c.o(i._ZN3I2C8DmaRxIRQEv) for I2C::DmaRxIRQ()
    interrupt.o(i.DMA1_Channel5_IRQHandler) refers to interrupt.o(.data) for pI2C2
    interrupt.o(i.DMA1_Channel6_IRQHandler) refers to i2c.o(i._ZN3I2C8DmaTxIRQEv) for I2C::DmaTxIRQ()
    interrupt.o(i.DMA1_Channel6_IRQHandler) refers to interrupt.o(.data) for pI2C1
    interrupt.o(i.DMA1_Channel7_IRQHandler) refers to usart.o(i._ZN5USART6DmaIrqEv) for USART::DmaIrq()
    interrupt.o(i.DMA1_Channel7_IRQHandler) refers to i2c.o(i._ZN3I2C8DmaRxIRQEv) for I2C::DmaRxIRQ()
    interrupt.o(i.DMA1_Channel7_IRQHandler) refers to interrupt.o(.data) for pUSART2
    interrupt.o(i.EXTI2_IRQHandler) refers to nrf24l01.o(i._ZN8NRF24L016IRQIrqEv) for NRF24L01::IRQIrq()
    interrupt.o(i.EXTI2_IRQHandler) refers to interrupt.o(.data) for pNRF
    interrupt.o(i.I2C1_ER_IRQHandler) refers to i2c.o(i._ZN3I2C8ErrorIRQEv) for I2C::ErrorIRQ()
    interrupt.o(i.I2C1_ER_IRQHandler) refers to interrupt.o(.data) for pI2C1
    interrupt.o(i.I2C1_EV_IRQHandler) refers to i2c.o(i._ZN3I2C8EventIRQEv) for I2C::EventIRQ()
    interrupt.o(i.I2C1_EV_IRQHandler) refers to interrupt.o(.data) for pI2C1
    interrupt.o(i.I2C2_ER_IRQHandler) refers to i2c.o(i._ZN3I2C8ErrorIRQEv) for I2C::ErrorIRQ()
    interrupt.o(i.I2C2_ER_IRQHandler) refers to interrupt.o(.data) for pI2C2
    interrupt.o(i.I2C2_EV_IRQHandler) refers to i2c.o(i._ZN3I2C8EventIRQEv) for I2C::EventIRQ()
    interrupt.o(i.I2C2_EV_IRQHandler) refers to interrupt.o(.data) for pI2C2
    interrupt.o(i.SPI1_IRQHandler) refers to spi.o(i._ZN3SPI6SpiIrqEv) for SPI::SpiIrq()
    interrupt.o(i.SPI1_IRQHandler) refers to interrupt.o(.data) for pSPI1
    interrupt.o(i.SPI2_IRQHandler) refers to spi.o(i._ZN3SPI6SpiIrqEv) for SPI::SpiIrq()
    interrupt.o(i.SPI2_IRQHandler) refers to interrupt.o(.data) for pSPI2
    interrupt.o(i.USART1_IRQHandler) refers to usart.o(i._ZN5USART3IrqEv) for USART::Irq()
    interrupt.o(i.USART1_IRQHandler) refers to interrupt.o(.data) for pUSART1
    interrupt.o(i.USART2_IRQHandler) refers to usart.o(i._ZN5USART3IrqEv) for USART::Irq()
    interrupt.o(i.USART2_IRQHandler) refers to interrupt.o(.data) for pUSART2
    interrupt.o(i.USART3_IRQHandler) refers to usart.o(i._ZN5USART3IrqEv) for USART::Irq()
    interrupt.o(i.USART3_IRQHandler) refers to interrupt.o(.data) for pUSART3
    interrupt.o(.ARM.exidx) refers to interrupt.o(i.USART1_IRQHandler) for i.USART1_IRQHandler
    interrupt.o(.ARM.exidx) refers to interrupt.o(i.USART2_IRQHandler) for i.USART2_IRQHandler
    interrupt.o(.ARM.exidx) refers to interrupt.o(i.USART3_IRQHandler) for i.USART3_IRQHandler
    interrupt.o(.ARM.exidx) refers to interrupt.o(i.I2C1_EV_IRQHandler) for i.I2C1_EV_IRQHandler
    interrupt.o(.ARM.exidx) refers to interrupt.o(i.I2C2_EV_IRQHandler) for i.I2C2_EV_IRQHandler
    interrupt.o(.ARM.exidx) refers to interrupt.o(i.I2C1_ER_IRQHandler) for i.I2C1_ER_IRQHandler
    interrupt.o(.ARM.exidx) refers to interrupt.o(i.I2C2_ER_IRQHandler) for i.I2C2_ER_IRQHandler
    interrupt.o(.ARM.exidx) refers to interrupt.o(i.DMA1_Channel2_IRQHandler) for i.DMA1_Channel2_IRQHandler
    interrupt.o(.ARM.exidx) refers to interrupt.o(i.DMA1_Channel4_IRQHandler) for i.DMA1_Channel4_IRQHandler
    interrupt.o(.ARM.exidx) refers to interrupt.o(i.DMA1_Channel5_IRQHandler) for i.DMA1_Channel5_IRQHandler
    interrupt.o(.ARM.exidx) refers to interrupt.o(i.DMA1_Channel6_IRQHandler) for i.DMA1_Channel6_IRQHandler
    interrupt.o(.ARM.exidx) refers to interrupt.o(i.DMA1_Channel7_IRQHandler) for i.DMA1_Channel7_IRQHandler
    interrupt.o(.ARM.exidx) refers to interrupt.o(i.SPI1_IRQHandler) for i.SPI1_IRQHandler
    interrupt.o(.ARM.exidx) refers to interrupt.o(i.SPI2_IRQHandler) for i.SPI2_IRQHandler
    interrupt.o(.ARM.exidx) refers to interrupt.o(i.EXTI2_IRQHandler) for i.EXTI2_IRQHandler
    taskmanager.o(i.SysTick_Handler) refers to dadd.o(.text) for __aeabi_dadd
    taskmanager.o(i.SysTick_Handler) refers to taskmanager.o(.data) for TaskManager::_it_time
    taskmanager.o(i._ZN11TaskManager4TimeEv) refers to dfltui.o(.text) for __aeabi_ui2d
    taskmanager.o(i._ZN11TaskManager4TimeEv) refers to ddiv.o(.text) for __aeabi_ddiv
    taskmanager.o(i._ZN11TaskManager4TimeEv) refers to dadd.o(.text) for __aeabi_dadd
    taskmanager.o(i._ZN11TaskManager4TimeEv) refers to cdrcmple.o(.text) for __aeabi_cdrcmple
    taskmanager.o(i._ZN11TaskManager4TimeEv) refers to taskmanager.o(.data) for TaskManager::_it_time
    taskmanager.o(i._ZN11TaskManager6DelaySEt) refers to taskmanager.o(i._ZN11TaskManager4TimeEv) for TaskManager::Time()
    taskmanager.o(i._ZN11TaskManager6DelaySEt) refers to dfltui.o(.text) for __aeabi_ui2d
    taskmanager.o(i._ZN11TaskManager6DelaySEt) refers to dadd.o(.text) for __aeabi_dsub
    taskmanager.o(i._ZN11TaskManager6DelaySEt) refers to cdcmple.o(.text) for __aeabi_cdcmple
    taskmanager.o(i._ZN11TaskManager7DelayMsEt) refers to taskmanager.o(i._ZN11TaskManager4TimeEv) for TaskManager::Time()
    taskmanager.o(i._ZN11TaskManager7DelayMsEt) refers to dfltui.o(.text) for __aeabi_ui2d
    taskmanager.o(i._ZN11TaskManager7DelayMsEt) refers to ddiv.o(.text) for __aeabi_ddiv
    taskmanager.o(i._ZN11TaskManager7DelayMsEt) refers to dadd.o(.text) for __aeabi_dsub
    taskmanager.o(i._ZN11TaskManager7DelayMsEt) refers to cdcmple.o(.text) for __aeabi_cdcmple
    taskmanager.o(i._ZN11TaskManager7DelayUsEt) refers to taskmanager.o(i._ZN11TaskManager4TimeEv) for TaskManager::Time()
    taskmanager.o(i._ZN11TaskManager7DelayUsEt) refers to dfltui.o(.text) for __aeabi_ui2d
    taskmanager.o(i._ZN11TaskManager7DelayUsEt) refers to ddiv.o(.text) for __aeabi_ddiv
    taskmanager.o(i._ZN11TaskManager7DelayUsEt) refers to dadd.o(.text) for __aeabi_dsub
    taskmanager.o(i._ZN11TaskManager7DelayUsEt) refers to cdcmple.o(.text) for __aeabi_cdcmple
    taskmanager.o(i._ZN11TaskManager9TimeSliceERdd) refers to taskmanager.o(i._ZN11TaskManager4TimeEv) for TaskManager::Time()
    taskmanager.o(i._ZN11TaskManager9TimeSliceERdd) refers to dadd.o(.text) for __aeabi_dsub
    taskmanager.o(i._ZN11TaskManager9TimeSliceERdd) refers to cdrcmple.o(.text) for __aeabi_cdrcmple
    taskmanager.o(i.__sti___15_TaskManager_cpp_tskmgr) refers to taskmanager.o(i._ZN11TaskManagerC1Ev) for TaskManager::TaskManager()
    taskmanager.o(i.__sti___15_TaskManager_cpp_tskmgr) refers to taskmanager.o(.data) for tskmgr
    taskmanager.o(.ARM.exidx) refers to taskmanager.o(i.SysTick_Handler) for i.SysTick_Handler
    taskmanager.o(.ARM.exidx) refers to taskmanager.o(i._ZN11TaskManagerC1Ev) for i._ZN11TaskManagerC1Ev
    taskmanager.o(.ARM.exidx) refers to taskmanager.o(i._ZN11TaskManager4TimeEv) for i._ZN11TaskManager4TimeEv
    taskmanager.o(.ARM.exidx) refers to taskmanager.o(i._ZN11TaskManager7DelayUsEt) for i._ZN11TaskManager7DelayUsEt
    taskmanager.o(.ARM.exidx) refers to taskmanager.o(i._ZN11TaskManager7DelayMsEt) for i._ZN11TaskManager7DelayMsEt
    taskmanager.o(.ARM.exidx) refers to taskmanager.o(i._ZN11TaskManager6DelaySEt) for i._ZN11TaskManager6DelaySEt
    taskmanager.o(.ARM.exidx) refers to taskmanager.o(i._ZN11TaskManager9TimeSliceERdd) for i._ZN11TaskManager9TimeSliceERdd
    taskmanager.o(.ARM.exidx) refers to taskmanager.o(i.__sti___15_TaskManager_cpp_tskmgr) for i.__sti___15_TaskManager_cpp_tskmgr
    taskmanager.o(.init_array) refers to taskmanager.o(i.__sti___15_TaskManager_cpp_tskmgr) for __sti___15_TaskManager_cpp_tskmgr
    taskmanager.o(.init_array) refers to cpp_init.o(.text) for __cpp_initialize__aeabi_
    timer.o(i._ZN5Timer10ResetTimerEttt) refers to stm32f10x_tim.o(i.TIM_Cmd) for TIM_Cmd
    timer.o(i._ZN5Timer10ResetTimerEttt) refers to timer.o(i._ZN5Timer10ConversionEttt) for Timer::Conversion(unsigned short, unsigned short, unsigned short)
    timer.o(i._ZN5Timer4StopEv) refers to stm32f10x_tim.o(i.TIM_Cmd) for TIM_Cmd
    timer.o(i._ZN5Timer5StartEv) refers to stm32f10x_tim.o(i.TIM_Cmd) for TIM_Cmd
    timer.o(i._ZN5TimerC1EP11TIM_TypeDefhhhttt) refers to timer.o(i._ZN5Timer10ConversionEttt) for Timer::Conversion(unsigned short, unsigned short, unsigned short)
    timer.o(i._ZN5TimerC1EP11TIM_TypeDefhhhttt) refers to stm32f10x_rcc.o(i.RCC_APB2PeriphClockCmd) for RCC_APB2PeriphClockCmd
    timer.o(i._ZN5TimerC1EP11TIM_TypeDefhhhttt) refers to stm32f10x_rcc.o(i.RCC_APB1PeriphClockCmd) for RCC_APB1PeriphClockCmd
    timer.o(i._ZN5TimerC1EP11TIM_TypeDefhhhttt) refers to stm32f10x_tim.o(i.TIM_TimeBaseInit) for TIM_TimeBaseInit
    timer.o(i._ZN5TimerC1EP11TIM_TypeDefhhhttt) refers to stm32f10x_tim.o(i.TIM_ITConfig) for TIM_ITConfig
    timer.o(i._ZN5TimerC1EP11TIM_TypeDefhhhttt) refers to misc.o(i.NVIC_PriorityGroupConfig) for NVIC_PriorityGroupConfig
    timer.o(i._ZN5TimerC1EP11TIM_TypeDefhhhttt) refers to misc.o(i.NVIC_Init) for NVIC_Init
    timer.o(.ARM.exidx) refers to timer.o(i._ZN5Timer10ConversionEttt) for i._ZN5Timer10ConversionEttt
    timer.o(.ARM.exidx) refers to timer.o(i._ZN5TimerC1EP11TIM_TypeDefhhhttt) for i._ZN5TimerC1EP11TIM_TypeDefhhhttt
    timer.o(.ARM.exidx) refers to timer.o(i._ZN5Timer5StartEv) for i._ZN5Timer5StartEv
    timer.o(.ARM.exidx) refers to timer.o(i._ZN5Timer4StopEv) for i._ZN5Timer4StopEv
    timer.o(.ARM.exidx) refers to timer.o(i._ZN5Timer10OnOrOffIrqEb) for i._ZN5Timer10OnOrOffIrqEb
    timer.o(.ARM.exidx) refers to timer.o(i._ZN5Timer8ClearCNTEv) for i._ZN5Timer8ClearCNTEv
    timer.o(.ARM.exidx) refers to timer.o(i._ZN5Timer10GetNowTimeEv) for i._ZN5Timer10GetNowTimeEv
    timer.o(.ARM.exidx) refers to timer.o(i._ZN5Timer7GetTIMxEv) for i._ZN5Timer7GetTIMxEv
    timer.o(.ARM.exidx) refers to timer.o(i._ZN5Timer10ResetTimerEttt) for i._ZN5Timer10ResetTimerEttt
    timer.o(.ARM.exidx) refers to timer.o(i._ZN5Timer11GetTimerArrEv) for i._ZN5Timer11GetTimerArrEv
    timer.o(.ARM.exidx) refers to timer.o(i._ZN5Timer11GetTimerPscEv) for i._ZN5Timer11GetTimerPscEv
    usart.o(i._ZN5USART11SetBaudRateEj) refers to stm32f10x_rcc.o(i.RCC_GetClocksFreq) for RCC_GetClocksFreq
    usart.o(i._ZN5USART14SendBufferSizeEv) refers to usart.o(t._ZN10FIFOBufferIhLt128EE4SizeEv) for FIFOBuffer<unsigned char, (unsigned short)128>::Size()
    usart.o(i._ZN5USART15ClearSendBufferEv) refers to usart.o(t._ZN10FIFOBufferIhLt128EE5ClearEv) for FIFOBuffer<unsigned char, (unsigned short)128>::Clear()
    usart.o(i._ZN5USART15GetReceivedDataEPht) refers to usart.o(t._ZN10FIFOBufferIhLt128EE4SizeEv) for FIFOBuffer<unsigned char, (unsigned short)128>::Size()
    usart.o(i._ZN5USART15GetReceivedDataEPht) refers to usart.o(t._ZN10FIFOBufferIhLt128EE4GetsEPht) for FIFOBuffer<unsigned char, (unsigned short)128>::Gets(unsigned char*, unsigned short)
    usart.o(i._ZN5USART17ReceiveBufferSizeEv) refers to usart.o(t._ZN10FIFOBufferIhLt128EE4SizeEv) for FIFOBuffer<unsigned char, (unsigned short)128>::Size()
    usart.o(i._ZN5USART18ClearReceiveBufferEv) refers to usart.o(t._ZN10FIFOBufferIhLt128EE5ClearEv) for FIFOBuffer<unsigned char, (unsigned short)128>::Clear()
    usart.o(i._ZN5USART3IrqEv) refers to stm32f10x_usart.o(i.USART_GetITStatus) for USART_GetITStatus
    usart.o(i._ZN5USART3IrqEv) refers to stm32f10x_usart.o(i.USART_ReceiveData) for USART_ReceiveData
    usart.o(i._ZN5USART3IrqEv) refers to usart.o(t._ZN10FIFOBufferIhLt128EE3PutERKh) for FIFOBuffer<unsigned char, (unsigned short)128>::Put(const unsigned char&)
    usart.o(i._ZN5USART3IrqEv) refers to stm32f10x_usart.o(i.USART_ClearITPendingBit) for USART_ClearITPendingBit
    usart.o(i._ZN5USART3IrqEv) refers to usart.o(t._ZN10FIFOBufferIhLt128EE4SizeEv) for FIFOBuffer<unsigned char, (unsigned short)128>::Size()
    usart.o(i._ZN5USART3IrqEv) refers to usart.o(t._ZN10FIFOBufferIhLt128EE3GetERh) for FIFOBuffer<unsigned char, (unsigned short)128>::Get(unsigned char&)
    usart.o(i._ZN5USART3IrqEv) refers to stm32f10x_usart.o(i.USART_SendData) for USART_SendData
    usart.o(i._ZN5USART3IrqEv) refers to stm32f10x_usart.o(i.USART_ITConfig) for USART_ITConfig
    usart.o(i._ZN5USART3IrqEv) refers to usart.o(.data) for dataToSend
    usart.o(i._ZN5USART6DmaIrqEv) refers to stm32f10x_dma.o(i.DMA_GetFlagStatus) for DMA_GetFlagStatus
    usart.o(i._ZN5USART6DmaIrqEv) refers to stm32f10x_dma.o(i.DMA_ClearITPendingBit) for DMA_ClearITPendingBit
    usart.o(i._ZN5USART6DmaIrqEv) refers to stm32f10x_dma.o(i.DMA_ClearFlag) for DMA_ClearFlag
    usart.o(i._ZN5USART6DmaIrqEv) refers to stm32f10x_dma.o(i.DMA_Cmd) for DMA_Cmd
    usart.o(i._ZN5USART6DmaIrqEv) refers to usart.o(t._ZN10FIFOBufferIhLt128EE4SizeEv) for FIFOBuffer<unsigned char, (unsigned short)128>::Size()
    usart.o(i._ZN5USART6DmaIrqEv) refers to usart.o(t._ZN10FIFOBufferIhLt128EE4GetsEPht) for FIFOBuffer<unsigned char, (unsigned short)128>::Gets(unsigned char*, unsigned short)
    usart.o(i._ZN5USART8SendDataEPhj) refers to usart.o(t._ZN10FIFOBufferIhLt128EE4PutsEPht) for FIFOBuffer<unsigned char, (unsigned short)128>::Puts(unsigned char*, unsigned short)
    usart.o(i._ZN5USART8SendDataEPhj) refers to usart.o(t._ZN10FIFOBufferIhLt128EE4SizeEv) for FIFOBuffer<unsigned char, (unsigned short)128>::Size()
    usart.o(i._ZN5USART8SendDataEPhj) refers to usart.o(t._ZN10FIFOBufferIhLt128EE4GetsEPht) for FIFOBuffer<unsigned char, (unsigned short)128>::Gets(unsigned char*, unsigned short)
    usart.o(i._ZN5USART8SendDataEPhj) refers to stm32f10x_dma.o(i.DMA_Cmd) for DMA_Cmd
    usart.o(i._ZN5USART8SendDataEPhj) refers to stm32f10x_usart.o(i.USART_ClearITPendingBit) for USART_ClearITPendingBit
    usart.o(i._ZN5USART8SendDataEPhj) refers to stm32f10x_usart.o(i.USART_ITConfig) for USART_ITConfig
    usart.o(i._ZN5USART8SendDataEPhj) refers to stm32f10x_usart.o(i.USART_GetFlagStatus) for USART_GetFlagStatus
    usart.o(i._ZN5USART8SendDataEPhj) refers to usart.o(t._ZN10FIFOBufferIhLt128EE3GetERh) for FIFOBuffer<unsigned char, (unsigned short)128>::Get(unsigned char&)
    usart.o(i._ZN5USART8SendDataEPhj) refers to stm32f10x_usart.o(i.USART_SendData) for USART_SendData
    usart.o(i._ZN5USART8SendDataEPhj) refers to usart.o(.data) for dataToSend
    usart.o(i._ZN5USARTC1Ehjbhhhhhttt) refers to usart.o(t._ZN10FIFOBufferIhLt128EEC1Ev) for FIFOBuffer<unsigned char, (unsigned short)128>::FIFOBuffer()
    usart.o(i._ZN5USARTC1Ehjbhhhhhttt) refers to gpio.o(i._ZN4GPIOC1EP12GPIO_TypeDeft16GPIOMode_TypeDef17GPIOSpeed_TypeDef) for GPIO::GPIO(GPIO_TypeDef*, unsigned short, GPIOMode_TypeDef, GPIOSpeed_TypeDef)
    usart.o(i._ZN5USARTC1Ehjbhhhhhttt) refers to stm32f10x_rcc.o(i.RCC_APB2PeriphClockCmd) for RCC_APB2PeriphClockCmd
    usart.o(i._ZN5USARTC1Ehjbhhhhhttt) refers to stm32f10x_gpio.o(i.GPIO_PinRemapConfig) for GPIO_PinRemapConfig
    usart.o(i._ZN5USARTC1Ehjbhhhhhttt) refers to stm32f10x_rcc.o(i.RCC_APB1PeriphClockCmd) for RCC_APB1PeriphClockCmd
    usart.o(i._ZN5USARTC1Ehjbhhhhhttt) refers to memcpya.o(.text) for __aeabi_memcpy4
    usart.o(i._ZN5USARTC1Ehjbhhhhhttt) refers to stm32f10x_usart.o(i.USART_Init) for USART_Init
    usart.o(i._ZN5USARTC1Ehjbhhhhhttt) refers to stm32f10x_usart.o(i.USART_Cmd) for USART_Cmd
    usart.o(i._ZN5USARTC1Ehjbhhhhhttt) refers to stm32f10x_usart.o(i.USART_DMACmd) for USART_DMACmd
    usart.o(i._ZN5USARTC1Ehjbhhhhhttt) refers to stm32f10x_rcc.o(i.RCC_AHBPeriphClockCmd) for RCC_AHBPeriphClockCmd
    usart.o(i._ZN5USARTC1Ehjbhhhhhttt) refers to stm32f10x_dma.o(i.DMA_Init) for DMA_Init
    usart.o(i._ZN5USARTC1Ehjbhhhhhttt) refers to stm32f10x_dma.o(i.DMA_Cmd) for DMA_Cmd
    usart.o(i._ZN5USARTC1Ehjbhhhhhttt) refers to stm32f10x_usart.o(i.USART_ITConfig) for USART_ITConfig
    usart.o(i._ZN5USARTC1Ehjbhhhhhttt) refers to misc.o(i.NVIC_PriorityGroupConfig) for NVIC_PriorityGroupConfig
    usart.o(i._ZN5USARTC1Ehjbhhhhhttt) refers to misc.o(i.NVIC_Init) for NVIC_Init
    usart.o(i._ZN5USARTC1Ehjbhhhhhttt) refers to interrupt.o(.data) for pUSART1
    usart.o(i._ZN5USARTD1Ev) refers to interrupt.o(.data) for pUSART1
    usart.o(i._ZN5USARTlsEPKc) refers to usart.o(i._ZN5USART8SendDataEPhj) for USART::SendData(unsigned char*, unsigned)
    usart.o(i._ZN5USARTlsEc) refers to usart.o(i._ZN5USART8SendDataEPhj) for USART::SendData(unsigned char*, unsigned)
    usart.o(i._ZN5USARTlsEd) refers to cdcmple.o(.text) for __aeabi_cdcmple
    usart.o(i._ZN5USARTlsEd) refers to dmul.o(.text) for __aeabi_dmul
    usart.o(i._ZN5USARTlsEd) refers to dfixui.o(.text) for __aeabi_d2uiz
    usart.o(i._ZN5USARTlsEd) refers to usart.o(i._ZN5USART8SendDataEPhj) for USART::SendData(unsigned char*, unsigned)
    usart.o(i._ZN5USARTlsEi) refers to usart.o(i._ZN5USART8SendDataEPhj) for USART::SendData(unsigned char*, unsigned)
    usart.o(.ARM.exidx) refers to usart.o(i._Z3funv) for i._Z3funv
    usart.o(.ARM.exidx) refers to usart.o(i._ZN5USARTD1Ev) for i._ZN5USARTD1Ev
    usart.o(.ARM.exidx) refers to usart.o(i._ZN5USARTC1Ehjbhhhhhttt) for i._ZN5USARTC1Ehjbhhhhhttt
    usart.o(.ARM.exidx) refers to usart.o(i._ZN5USART8SendDataEPhj) for i._ZN5USART8SendDataEPhj
    usart.o(.ARM.exidx) refers to usart.o(i._ZN5USART15GetReceivedDataEPht) for i._ZN5USART15GetReceivedDataEPht
    usart.o(.ARM.exidx) refers to usart.o(i._ZN5USART8GetUSARTEv) for i._ZN5USART8GetUSARTEv
    usart.o(.ARM.exidx) refers to usart.o(i._ZN5USART11SetBaudRateEj) for i._ZN5USART11SetBaudRateEj
    usart.o(.ARM.exidx) refers to usart.o(i._ZN5USART11GetBaudRateEv) for i._ZN5USART11GetBaudRateEv
    usart.o(.ARM.exidx) refers to usart.o(i._ZN5USART17ReceiveBufferSizeEv) for i._ZN5USART17ReceiveBufferSizeEv
    usart.o(.ARM.exidx) refers to usart.o(i._ZN5USART14SendBufferSizeEv) for i._ZN5USART14SendBufferSizeEv
    usart.o(.ARM.exidx) refers to usart.o(i._ZN5USART18ClearReceiveBufferEv) for i._ZN5USART18ClearReceiveBufferEv
    usart.o(.ARM.exidx) refers to usart.o(i._ZN5USART15ClearSendBufferEv) for i._ZN5USART15ClearSendBufferEv
    usart.o(.ARM.exidx) refers to usart.o(i._ZN5USART3IrqEv) for i._ZN5USART3IrqEv
    usart.o(.ARM.exidx) refers to usart.o(i._ZN5USART6DmaIrqEv) for i._ZN5USART6DmaIrqEv
    usart.o(.ARM.exidx) refers to usart.o(i._ZN5USARTlsEi) for i._ZN5USARTlsEi
    usart.o(.ARM.exidx) refers to usart.o(i._ZN5USARTlsEd) for i._ZN5USARTlsEd
    usart.o(.ARM.exidx) refers to usart.o(i._ZN5USART12SetprecisionEh) for i._ZN5USART12SetprecisionEh
    usart.o(.ARM.exidx) refers to usart.o(i._ZN5USARTlsEPKc) for i._ZN5USARTlsEPKc
    usart.o(.ARM.exidx) refers to usart.o(i._ZN5USARTlsEc) for i._ZN5USARTlsEc
    usart.o(.ARM.exidx) refers to usart.o(i._ZN5USART6UseDmaEv) for i._ZN5USART6UseDmaEv
    usart.o(.ARM.exidx) refers to usart.o(i._ZN5USART6GetmTxEv) for i._ZN5USART6GetmTxEv
    usart.o(.ARM.exidx) refers to usart.o(i._ZN5USART6GetmRxEv) for i._ZN5USART6GetmRxEv
    led.o(i._ZN3LED2OnEv) refers to gpio.o(i._ZN4GPIO8SetLevelEh) for GPIO::SetLevel(unsigned char)
    led.o(i._ZN3LED3OffEv) refers to gpio.o(i._ZN4GPIO8SetLevelEh) for GPIO::SetLevel(unsigned char)
    led.o(i._ZN3LED5BlinkEhtb) refers to led.o(i._ZN3LED2OnEv) for LED::On()
    led.o(i._ZN3LED5BlinkEhtb) refers to taskmanager.o(i._ZN11TaskManager7DelayMsEt) for TaskManager::DelayMs(unsigned short)
    led.o(i._ZN3LED5BlinkEhtb) refers to led.o(i._ZN3LED3OffEv) for LED::Off()
    led.o(i._ZN3LED5BlinkEhtb) refers to dfltui.o(.text) for __aeabi_ui2d
    led.o(i._ZN3LED5BlinkEhtb) refers to taskmanager.o(i._ZN11TaskManager4TimeEv) for TaskManager::Time()
    led.o(i._ZN3LED5BlinkEhtb) refers to dadd.o(.text) for __aeabi_dsub
    led.o(i._ZN3LED5BlinkEhtb) refers to cdrcmple.o(.text) for __aeabi_cdrcmple
    led.o(i._ZN3LED5BlinkEhtb) refers to led.o(i._ZN3LED6ToggleEv) for LED::Toggle()
    led.o(i._ZN3LED5BlinkEhtb) refers to led.o(.data) for times
    led.o(i._ZN3LED6Blink2ERS_ht) refers to led.o(i._ZN3LED2OnEv) for LED::On()
    led.o(i._ZN3LED6Blink2ERS_ht) refers to taskmanager.o(i._ZN11TaskManager7DelayMsEt) for TaskManager::DelayMs(unsigned short)
    led.o(i._ZN3LED6Blink2ERS_ht) refers to led.o(i._ZN3LED3OffEv) for LED::Off()
    led.o(i._ZN3LED6Blink3ERS_ht) refers to led.o(i._ZN3LED2OnEv) for LED::On()
    led.o(i._ZN3LED6Blink3ERS_ht) refers to led.o(i._ZN3LED3OffEv) for LED::Off()
    led.o(i._ZN3LED6Blink3ERS_ht) refers to taskmanager.o(i._ZN11TaskManager7DelayMsEt) for TaskManager::DelayMs(unsigned short)
    led.o(i._ZN3LED6ToggleEv) refers to gpio.o(i._ZN4GPIO8GetLevelEv) for GPIO::GetLevel()
    led.o(i._ZN3LED6ToggleEv) refers to gpio.o(i._ZN4GPIO8SetLevelEh) for GPIO::SetLevel(unsigned char)
    led.o(.ARM.exidx) refers to led.o(i._ZN3LEDC1ER4GPIOb) for i._ZN3LEDC1ER4GPIOb
    led.o(.ARM.exidx) refers to led.o(i._ZN3LED6ToggleEv) for i._ZN3LED6ToggleEv
    led.o(.ARM.exidx) refers to led.o(i._ZN3LED2OnEv) for i._ZN3LED2OnEv
    led.o(.ARM.exidx) refers to led.o(i._ZN3LED3OffEv) for i._ZN3LED3OffEv
    led.o(.ARM.exidx) refers to led.o(i._ZN3LED5BlinkEhtb) for i._ZN3LED5BlinkEhtb
    led.o(.ARM.exidx) refers to led.o(i._ZN3LED6Blink2ERS_ht) for i._ZN3LED6Blink2ERS_ht
    led.o(.ARM.exidx) refers to led.o(i._ZN3LED6Blink3ERS_ht) for i._ZN3LED6Blink3ERS_ht
    eeprom.o(i._Z15EE_PageTransfertt) refers to eeprom.o(i._Z16EE_FindValidPageh) for EE_FindValidPage(unsigned char)
    eeprom.o(i._Z15EE_PageTransfertt) refers to stm32f10x_flash.o(i.FLASH_ProgramHalfWord) for FLASH_ProgramHalfWord
    eeprom.o(i._Z15EE_PageTransfertt) refers to eeprom.o(i._Z17InitCurrWrAddressv) for InitCurrWrAddress()
    eeprom.o(i._Z15EE_PageTransfertt) refers to eeprom.o(i._Z30EE_VerifyPageFullWriteVariablett) for EE_VerifyPageFullWriteVariable(unsigned short, unsigned short)
    eeprom.o(i._Z15EE_PageTransfertt) refers to eeprom.o(i._Z15EE_ReadVariabletPt) for EE_ReadVariable(unsigned short, unsigned short*)
    eeprom.o(i._Z15EE_PageTransfertt) refers to stm32f10x_flash.o(i.FLASH_ErasePage) for FLASH_ErasePage
    eeprom.o(i._Z15EE_PageTransfertt) refers to eeprom.o(.data) for VirtAddVarTab
    eeprom.o(i._Z15EE_ReadVariabletPt) refers to eeprom.o(i._Z16EE_FindValidPageh) for EE_FindValidPage(unsigned char)
    eeprom.o(i._Z15EE_ReadVariabletPt) refers to eeprom.o(.data) for CurWrAddress
    eeprom.o(i._Z16EE_WriteVariablett) refers to eeprom.o(i._Z30EE_VerifyPageFullWriteVariablett) for EE_VerifyPageFullWriteVariable(unsigned short, unsigned short)
    eeprom.o(i._Z16EE_WriteVariablett) refers to eeprom.o(i._Z15EE_PageTransfertt) for EE_PageTransfer(unsigned short, unsigned short)
    eeprom.o(i._Z17InitCurrWrAddressv) refers to eeprom.o(i._Z16EE_FindValidPageh) for EE_FindValidPage(unsigned char)
    eeprom.o(i._Z17InitCurrWrAddressv) refers to eeprom.o(.data) for CurWrAddress
    eeprom.o(i._Z30EE_VerifyPageFullWriteVariablett) refers to eeprom.o(i._Z16EE_FindValidPageh) for EE_FindValidPage(unsigned char)
    eeprom.o(i._Z30EE_VerifyPageFullWriteVariablett) refers to stm32f10x_flash.o(i.FLASH_ProgramHalfWord) for FLASH_ProgramHalfWord
    eeprom.o(i._Z30EE_VerifyPageFullWriteVariablett) refers to eeprom.o(.data) for CurWrAddress
    eeprom.o(i._Z7EE_Initv) refers to stm32f10x_flash.o(i.FLASH_Unlock) for FLASH_Unlock
    eeprom.o(i._Z7EE_Initv) refers to eeprom.o(i._Z9__EE_Initv) for __EE_Init()
    eeprom.o(i._Z7EE_Initv) refers to eeprom.o(i._Z17InitCurrWrAddressv) for InitCurrWrAddress()
    eeprom.o(i._Z9EE_Formatv) refers to stm32f10x_flash.o(i.FLASH_ErasePage) for FLASH_ErasePage
    eeprom.o(i._Z9EE_Formatv) refers to stm32f10x_flash.o(i.FLASH_ProgramHalfWord) for FLASH_ProgramHalfWord
    eeprom.o(i._Z9__EE_Initv) refers to stm32f10x_flash.o(i.FLASH_ErasePage) for FLASH_ErasePage
    eeprom.o(i._Z9__EE_Initv) refers to stm32f10x_flash.o(i.FLASH_ProgramHalfWord) for FLASH_ProgramHalfWord
    eeprom.o(i._Z9__EE_Initv) refers to eeprom.o(i._Z9EE_Formatv) for EE_Format()
    eeprom.o(i._Z9__EE_Initv) refers to eeprom.o(i._Z15EE_ReadVariabletPt) for EE_ReadVariable(unsigned short, unsigned short*)
    eeprom.o(i._Z9__EE_Initv) refers to eeprom.o(i._Z30EE_VerifyPageFullWriteVariablett) for EE_VerifyPageFullWriteVariable(unsigned short, unsigned short)
    eeprom.o(i._Z9__EE_Initv) refers to eeprom.o(.data) for VirtAddVarTab
    eeprom.o(.ARM.exidx) refers to eeprom.o(i._Z16EE_FindValidPageh) for i._Z16EE_FindValidPageh
    eeprom.o(.ARM.exidx) refers to eeprom.o(i._Z17InitCurrWrAddressv) for i._Z17InitCurrWrAddressv
    eeprom.o(.ARM.exidx) refers to eeprom.o(i._Z9EE_Formatv) for i._Z9EE_Formatv
    eeprom.o(.ARM.exidx) refers to eeprom.o(i._Z30EE_VerifyPageFullWriteVariablett) for i._Z30EE_VerifyPageFullWriteVariablett
    eeprom.o(.ARM.exidx) refers to eeprom.o(i._Z15EE_ReadVariabletPt) for i._Z15EE_ReadVariabletPt
    eeprom.o(.ARM.exidx) refers to eeprom.o(i._Z9__EE_Initv) for i._Z9__EE_Initv
    eeprom.o(.ARM.exidx) refers to eeprom.o(i._Z7EE_Initv) for i._Z7EE_Initv
    eeprom.o(.ARM.exidx) refers to eeprom.o(i._Z15EE_PageTransfertt) for i._Z15EE_PageTransfertt
    eeprom.o(.ARM.exidx) refers to eeprom.o(i._Z16EE_WriteVariablett) for i._Z16EE_WriteVariablett
    spi.o(i._ZN3SPI14SendBufferSizeEv) refers to spi.o(t._ZN10FIFOBufferIhLt64EE4SizeEv) for FIFOBuffer<unsigned char, (unsigned short)64>::Size()
    spi.o(i._ZN3SPI15ClearSendBufferEv) refers to spi.o(t._ZN10FIFOBufferIhLt64EE5ClearEv) for FIFOBuffer<unsigned char, (unsigned short)64>::Clear()
    spi.o(i._ZN3SPI15GetReceivedDataEPht) refers to spi.o(t._ZN10FIFOBufferIhLt64EE4SizeEv) for FIFOBuffer<unsigned char, (unsigned short)64>::Size()
    spi.o(i._ZN3SPI15GetReceivedDataEPht) refers to spi.o(t._ZN10FIFOBufferIhLt64EE4GetsEPht) for FIFOBuffer<unsigned char, (unsigned short)64>::Gets(unsigned char*, unsigned short)
    spi.o(i._ZN3SPI17RCC_ConfigurationEv) refers to stm32f10x_rcc.o(i.RCC_APB2PeriphClockCmd) for RCC_APB2PeriphClockCmd
    spi.o(i._ZN3SPI17RCC_ConfigurationEv) refers to stm32f10x_rcc.o(i.RCC_APB1PeriphClockCmd) for RCC_APB1PeriphClockCmd
    spi.o(i._ZN3SPI17ReceiveBufferSizeEv) refers to spi.o(t._ZN10FIFOBufferIhLt64EE4SizeEv) for FIFOBuffer<unsigned char, (unsigned short)64>::Size()
    spi.o(i._ZN3SPI18ClearReceiveBufferEv) refers to spi.o(t._ZN10FIFOBufferIhLt64EE5ClearEv) for FIFOBuffer<unsigned char, (unsigned short)64>::Clear()
    spi.o(i._ZN3SPI6DmaIrqEv) refers to stm32f10x_dma.o(i.DMA_GetITStatus) for DMA_GetITStatus
    spi.o(i._ZN3SPI6DmaIrqEv) refers to stm32f10x_dma.o(i.DMA_ClearITPendingBit) for DMA_ClearITPendingBit
    spi.o(i._ZN3SPI6DmaIrqEv) refers to stm32f10x_dma.o(i.DMA_ClearFlag) for DMA_ClearFlag
    spi.o(i._ZN3SPI6DmaIrqEv) refers to stm32f10x_dma.o(i.DMA_Cmd) for DMA_Cmd
    spi.o(i._ZN3SPI6DmaIrqEv) refers to spi.o(t._ZN10FIFOBufferIhLt64EE4SizeEv) for FIFOBuffer<unsigned char, (unsigned short)64>::Size()
    spi.o(i._ZN3SPI6DmaIrqEv) refers to spi.o(t._ZN10FIFOBufferIhLt64EE4GetsEPht) for FIFOBuffer<unsigned char, (unsigned short)64>::Gets(unsigned char*, unsigned short)
    spi.o(i._ZN3SPI6SPI_RWEh) refers to stm32f10x_spi.o(i.SPI_I2S_GetFlagStatus) for SPI_I2S_GetFlagStatus
    spi.o(i._ZN3SPI6SPI_RWEh) refers to stm32f10x_spi.o(i.SPI_I2S_SendData) for SPI_I2S_SendData
    spi.o(i._ZN3SPI6SPI_RWEh) refers to stm32f10x_spi.o(i.SPI_I2S_ReceiveData) for SPI_I2S_ReceiveData
    spi.o(i._ZN3SPI6SpiIrqEv) refers to stm32f10x_spi.o(i.SPI_I2S_GetITStatus) for SPI_I2S_GetITStatus
    spi.o(i._ZN3SPI6SpiIrqEv) refers to stm32f10x_spi.o(i.SPI_I2S_GetFlagStatus) for SPI_I2S_GetFlagStatus
    spi.o(i._ZN3SPI6SpiIrqEv) refers to stm32f10x_spi.o(i.SPI_I2S_ClearITPendingBit) for SPI_I2S_ClearITPendingBit
    spi.o(i._ZN3SPI6SpiIrqEv) refers to stm32f10x_spi.o(i.SPI_I2S_ReceiveData) for SPI_I2S_ReceiveData
    spi.o(i._ZN3SPI6SpiIrqEv) refers to spi.o(t._ZN10FIFOBufferIhLt64EE3PutERKh) for FIFOBuffer<unsigned char, (unsigned short)64>::Put(const unsigned char&)
    spi.o(i._ZN3SPI6SpiIrqEv) refers to spi.o(t._ZN10FIFOBufferIhLt64EE4SizeEv) for FIFOBuffer<unsigned char, (unsigned short)64>::Size()
    spi.o(i._ZN3SPI6SpiIrqEv) refers to spi.o(t._ZN10FIFOBufferIhLt64EE3GetERh) for FIFOBuffer<unsigned char, (unsigned short)64>::Get(unsigned char&)
    spi.o(i._ZN3SPI6SpiIrqEv) refers to stm32f10x_spi.o(i.SPI_I2S_SendData) for SPI_I2S_SendData
    spi.o(i._ZN3SPI6SpiIrqEv) refers to stm32f10x_spi.o(i.SPI_I2S_ITConfig) for SPI_I2S_ITConfig
    spi.o(i._ZN3SPI6SpiIrqEv) refers to spi.o(.data) for dataToSend
    spi.o(i._ZN3SPI8SendDataEPhj) refers to spi.o(t._ZN10FIFOBufferIhLt64EE4PutsEPht) for FIFOBuffer<unsigned char, (unsigned short)64>::Puts(unsigned char*, unsigned short)
    spi.o(i._ZN3SPI8SendDataEPhj) refers to spi.o(t._ZN10FIFOBufferIhLt64EE4SizeEv) for FIFOBuffer<unsigned char, (unsigned short)64>::Size()
    spi.o(i._ZN3SPI8SendDataEPhj) refers to spi.o(t._ZN10FIFOBufferIhLt64EE4GetsEPht) for FIFOBuffer<unsigned char, (unsigned short)64>::Gets(unsigned char*, unsigned short)
    spi.o(i._ZN3SPI8SendDataEPhj) refers to stm32f10x_dma.o(i.DMA_Cmd) for DMA_Cmd
    spi.o(i._ZN3SPI8SendDataEPhj) refers to spi.o(t._ZN10FIFOBufferIhLt64EE3GetERh) for FIFOBuffer<unsigned char, (unsigned short)64>::Get(unsigned char&)
    spi.o(i._ZN3SPI8SendDataEPhj) refers to stm32f10x_spi.o(i.SPI_I2S_SendData) for SPI_I2S_SendData
    spi.o(i._ZN3SPI8SendDataEPhj) refers to stm32f10x_spi.o(i.SPI_I2S_ClearITPendingBit) for SPI_I2S_ClearITPendingBit
    spi.o(i._ZN3SPI8SendDataEPhj) refers to stm32f10x_spi.o(i.SPI_I2S_ITConfig) for SPI_I2S_ITConfig
    spi.o(i._ZN3SPI8SendDataEPhj) refers to stm32f10x_spi.o(i.SPI_I2S_GetFlagStatus) for SPI_I2S_GetFlagStatus
    spi.o(i._ZN3SPI8SendDataEPhj) refers to spi.o(.data) for dataToSend
    spi.o(i._ZN3SPI8SetSpeedEh) refers to stm32f10x_spi.o(i.SPI_Cmd) for SPI_Cmd
    spi.o(i._ZN3SPI9SetCSNPinEh) refers to gpio.o(i._ZN4GPIO8SetLevelEh) for GPIO::SetLevel(unsigned char)
    spi.o(i._ZN3SPIC1EP11SPI_TypeDefbhhhhh) refers to spi.o(t._ZN10FIFOBufferIhLt64EEC1Ev) for FIFOBuffer<unsigned char, (unsigned short)64>::FIFOBuffer()
    spi.o(i._ZN3SPIC1EP11SPI_TypeDefbhhhhh) refers to gpio.o(i._ZN4GPIOC1EP12GPIO_TypeDeft16GPIOMode_TypeDef17GPIOSpeed_TypeDef) for GPIO::GPIO(GPIO_TypeDef*, unsigned short, GPIOMode_TypeDef, GPIOSpeed_TypeDef)
    spi.o(i._ZN3SPIC1EP11SPI_TypeDefbhhhhh) refers to spi.o(i._ZN3SPI17RCC_ConfigurationEv) for SPI::RCC_Configuration()
    spi.o(i._ZN3SPIC1EP11SPI_TypeDefbhhhhh) refers to memcpya.o(.text) for __aeabi_memcpy4
    spi.o(i._ZN3SPIC1EP11SPI_TypeDefbhhhhh) refers to stm32f10x_gpio.o(i.GPIO_SetBits) for GPIO_SetBits
    spi.o(i._ZN3SPIC1EP11SPI_TypeDefbhhhhh) refers to stm32f10x_spi.o(i.SPI_Init) for SPI_Init
    spi.o(i._ZN3SPIC1EP11SPI_TypeDefbhhhhh) refers to stm32f10x_spi.o(i.SPI_Cmd) for SPI_Cmd
    spi.o(i._ZN3SPIC1EP11SPI_TypeDefbhhhhh) refers to stm32f10x_spi.o(i.SPI_I2S_DMACmd) for SPI_I2S_DMACmd
    spi.o(i._ZN3SPIC1EP11SPI_TypeDefbhhhhh) refers to stm32f10x_rcc.o(i.RCC_AHBPeriphClockCmd) for RCC_AHBPeriphClockCmd
    spi.o(i._ZN3SPIC1EP11SPI_TypeDefbhhhhh) refers to stm32f10x_dma.o(i.DMA_Init) for DMA_Init
    spi.o(i._ZN3SPIC1EP11SPI_TypeDefbhhhhh) refers to stm32f10x_dma.o(i.DMA_Cmd) for DMA_Cmd
    spi.o(i._ZN3SPIC1EP11SPI_TypeDefbhhhhh) refers to stm32f10x_dma.o(i.DMA_ITConfig) for DMA_ITConfig
    spi.o(i._ZN3SPIC1EP11SPI_TypeDefbhhhhh) refers to stm32f10x_spi.o(i.SPI_I2S_ITConfig) for SPI_I2S_ITConfig
    spi.o(i._ZN3SPIC1EP11SPI_TypeDefbhhhhh) refers to stm32f10x_spi.o(i.SPI_I2S_ClearFlag) for SPI_I2S_ClearFlag
    spi.o(i._ZN3SPIC1EP11SPI_TypeDefbhhhhh) refers to stm32f10x_spi.o(i.SPI_I2S_GetFlagStatus) for SPI_I2S_GetFlagStatus
    spi.o(i._ZN3SPIC1EP11SPI_TypeDefbhhhhh) refers to stm32f10x_spi.o(i.SPI_I2S_GetITStatus) for SPI_I2S_GetITStatus
    spi.o(i._ZN3SPIC1EP11SPI_TypeDefbhhhhh) refers to stm32f10x_spi.o(i.SPI_I2S_ClearITPendingBit) for SPI_I2S_ClearITPendingBit
    spi.o(i._ZN3SPIC1EP11SPI_TypeDefbhhhhh) refers to misc.o(i.NVIC_PriorityGroupConfig) for NVIC_PriorityGroupConfig
    spi.o(i._ZN3SPIC1EP11SPI_TypeDefbhhhhh) refers to misc.o(i.NVIC_Init) for NVIC_Init
    spi.o(i._ZN3SPIC1EP11SPI_TypeDefbhhhhh) refers to interrupt.o(.data) for pSPI1
    spi.o(i._ZN3SPID1Ev) refers to interrupt.o(.data) for pSPI1
    spi.o(.ARM.exidx) refers to spi.o(i._ZN3SPI17RCC_ConfigurationEv) for i._ZN3SPI17RCC_ConfigurationEv
    spi.o(.ARM.exidx) refers to spi.o(i._ZN3SPIC1EP11SPI_TypeDefbhhhhh) for i._ZN3SPIC1EP11SPI_TypeDefbhhhhh
    spi.o(.ARM.exidx) refers to spi.o(i._ZN3SPID1Ev) for i._ZN3SPID1Ev
    spi.o(.ARM.exidx) refers to spi.o(i._ZN3SPI6SPI_RWEh) for i._ZN3SPI6SPI_RWEh
    spi.o(.ARM.exidx) refers to spi.o(i._ZN3SPI8SendDataEPhj) for i._ZN3SPI8SendDataEPhj
    spi.o(.ARM.exidx) refers to spi.o(i._ZN3SPI15GetReceivedDataEPht) for i._ZN3SPI15GetReceivedDataEPht
    spi.o(.ARM.exidx) refers to spi.o(i._ZN3SPI8SetSpeedEh) for i._ZN3SPI8SetSpeedEh
    spi.o(.ARM.exidx) refers to spi.o(i._ZN3SPI17ReceiveBufferSizeEv) for i._ZN3SPI17ReceiveBufferSizeEv
    spi.o(.ARM.exidx) refers to spi.o(i._ZN3SPI14SendBufferSizeEv) for i._ZN3SPI14SendBufferSizeEv
    spi.o(.ARM.exidx) refers to spi.o(i._ZN3SPI18ClearReceiveBufferEv) for i._ZN3SPI18ClearReceiveBufferEv
    spi.o(.ARM.exidx) refers to spi.o(i._ZN3SPI15ClearSendBufferEv) for i._ZN3SPI15ClearSendBufferEv
    spi.o(.ARM.exidx) refers to spi.o(i._ZN3SPI9GetmMISOxEv) for i._ZN3SPI9GetmMISOxEv
    spi.o(.ARM.exidx) refers to spi.o(i._ZN3SPI9GetmMOSIxEv) for i._ZN3SPI9GetmMOSIxEv
    spi.o(.ARM.exidx) refers to spi.o(i._ZN3SPI6getSPIEv) for i._ZN3SPI6getSPIEv
    spi.o(.ARM.exidx) refers to spi.o(i._ZN3SPI6UseDmaEv) for i._ZN3SPI6UseDmaEv
    spi.o(.ARM.exidx) refers to spi.o(i._ZN3SPI6SpiIrqEv) for i._ZN3SPI6SpiIrqEv
    spi.o(.ARM.exidx) refers to spi.o(i._ZN3SPI6DmaIrqEv) for i._ZN3SPI6DmaIrqEv
    spi.o(.ARM.exidx) refers to spi.o(i._ZN3SPI9SetCSNPinEh) for i._ZN3SPI9SetCSNPinEh
    nrf24l01.o(i._ZN8NRF24L0110SPI_NRF_RWEh) refers to spi.o(i._ZN3SPI6SPI_RWEh) for SPI::SPI_RW(unsigned char)
    nrf24l01.o(i._ZN8NRF24L0111NRF_RX_ModeEv) refers to nrf24l01.o(i._ZN8NRF24L0110NRF_CE_LOWEv) for NRF24L01::NRF_CE_LOW()
    nrf24l01.o(i._ZN8NRF24L0111NRF_RX_ModeEv) refers to nrf24l01.o(i._ZN8NRF24L0112NRF_WriteBufEhPhh) for NRF24L01::NRF_WriteBuf(unsigned char, unsigned char*, unsigned char)
    nrf24l01.o(i._ZN8NRF24L0111NRF_RX_ModeEv) refers to nrf24l01.o(i._ZN8NRF24L0112NRF_WriteRegEhh) for NRF24L01::NRF_WriteReg(unsigned char, unsigned char)
    nrf24l01.o(i._ZN8NRF24L0111NRF_RX_ModeEv) refers to spi.o(i._ZN3SPI8SetSpeedEh) for SPI::SetSpeed(unsigned char)
    nrf24l01.o(i._ZN8NRF24L0111NRF_RX_ModeEv) refers to nrf24l01.o(i._ZN8NRF24L0111NRF_CE_HIGHEv) for NRF24L01::NRF_CE_HIGH()
    nrf24l01.o(i._ZN8NRF24L0111NRF_RX_ModeEv) refers to nrf24l01.o(.data) for RX_ADDRESS
    nrf24l01.o(i._ZN8NRF24L0111NRF_ReadBufEhPhh) refers to nrf24l01.o(i._ZN8NRF24L0111NRF_CSN_LOWEv) for NRF24L01::NRF_CSN_LOW()
    nrf24l01.o(i._ZN8NRF24L0111NRF_ReadBufEhPhh) refers to nrf24l01.o(i._ZN8NRF24L0110SPI_NRF_RWEh) for NRF24L01::SPI_NRF_RW(unsigned char)
    nrf24l01.o(i._ZN8NRF24L0111NRF_ReadBufEhPhh) refers to nrf24l01.o(i._ZN8NRF24L0112NRF_CSN_HIGHEv) for NRF24L01::NRF_CSN_HIGH()
    nrf24l01.o(i._ZN8NRF24L0111NRF_ReadRegEh) refers to nrf24l01.o(i._ZN8NRF24L0111NRF_CSN_LOWEv) for NRF24L01::NRF_CSN_LOW()
    nrf24l01.o(i._ZN8NRF24L0111NRF_ReadRegEh) refers to nrf24l01.o(i._ZN8NRF24L0110SPI_NRF_RWEh) for NRF24L01::SPI_NRF_RW(unsigned char)
    nrf24l01.o(i._ZN8NRF24L0111NRF_ReadRegEh) refers to nrf24l01.o(i._ZN8NRF24L0112NRF_CSN_HIGHEv) for NRF24L01::NRF_CSN_HIGH()
    nrf24l01.o(i._ZN8NRF24L0111NRF_TX_ModeEv) refers to nrf24l01.o(i._ZN8NRF24L0110NRF_CE_LOWEv) for NRF24L01::NRF_CE_LOW()
    nrf24l01.o(i._ZN8NRF24L0111NRF_TX_ModeEv) refers to nrf24l01.o(i._ZN8NRF24L0112NRF_WriteBufEhPhh) for NRF24L01::NRF_WriteBuf(unsigned char, unsigned char*, unsigned char)
    nrf24l01.o(i._ZN8NRF24L0111NRF_TX_ModeEv) refers to nrf24l01.o(i._ZN8NRF24L0112NRF_WriteRegEhh) for NRF24L01::NRF_WriteReg(unsigned char, unsigned char)
    nrf24l01.o(i._ZN8NRF24L0111NRF_TX_ModeEv) refers to nrf24l01.o(i._ZN8NRF24L0111NRF_CE_HIGHEv) for NRF24L01::NRF_CE_HIGH()
    nrf24l01.o(i._ZN8NRF24L0111NRF_TX_ModeEv) refers to nrf24l01.o(.data) for TX_ADDRESS
    nrf24l01.o(i._ZN8NRF24L0112NRF_SendDataEPhj) refers to spi.o(i._ZN3SPI8SendDataEPhj) for SPI::SendData(unsigned char*, unsigned)
    nrf24l01.o(i._ZN8NRF24L0112NRF_WriteBufEhPhh) refers to nrf24l01.o(i._ZN8NRF24L0111NRF_CSN_LOWEv) for NRF24L01::NRF_CSN_LOW()
    nrf24l01.o(i._ZN8NRF24L0112NRF_WriteBufEhPhh) refers to nrf24l01.o(i._ZN8NRF24L0110SPI_NRF_RWEh) for NRF24L01::SPI_NRF_RW(unsigned char)
    nrf24l01.o(i._ZN8NRF24L0112NRF_WriteBufEhPhh) refers to nrf24l01.o(i._ZN8NRF24L0112NRF_SendDataEPhj) for NRF24L01::NRF_SendData(unsigned char*, unsigned)
    nrf24l01.o(i._ZN8NRF24L0112NRF_WriteBufEhPhh) refers to nrf24l01.o(i._ZN8NRF24L0112NRF_CSN_HIGHEv) for NRF24L01::NRF_CSN_HIGH()
    nrf24l01.o(i._ZN8NRF24L0112NRF_WriteRegEhh) refers to nrf24l01.o(i._ZN8NRF24L0111NRF_CSN_LOWEv) for NRF24L01::NRF_CSN_LOW()
    nrf24l01.o(i._ZN8NRF24L0112NRF_WriteRegEhh) refers to nrf24l01.o(i._ZN8NRF24L0110SPI_NRF_RWEh) for NRF24L01::SPI_NRF_RW(unsigned char)
    nrf24l01.o(i._ZN8NRF24L0112NRF_WriteRegEhh) refers to nrf24l01.o(i._ZN8NRF24L0112NRF_CSN_HIGHEv) for NRF24L01::NRF_CSN_HIGH()
    nrf24l01.o(i._ZN8NRF24L0114NRF_SendPacketEPh) refers to nrf24l01.o(i._ZN8NRF24L0111NRF_TX_ModeEv) for NRF24L01::NRF_TX_Mode()
    nrf24l01.o(i._ZN8NRF24L0114NRF_SendPacketEPh) refers to spi.o(i._ZN3SPI8SetSpeedEh) for SPI::SetSpeed(unsigned char)
    nrf24l01.o(i._ZN8NRF24L0114NRF_SendPacketEPh) refers to nrf24l01.o(i._ZN8NRF24L0110NRF_CE_LOWEv) for NRF24L01::NRF_CE_LOW()
    nrf24l01.o(i._ZN8NRF24L0114NRF_SendPacketEPh) refers to nrf24l01.o(i._ZN8NRF24L0112NRF_WriteBufEhPhh) for NRF24L01::NRF_WriteBuf(unsigned char, unsigned char*, unsigned char)
    nrf24l01.o(i._ZN8NRF24L0114NRF_SendPacketEPh) refers to nrf24l01.o(i._ZN8NRF24L0111NRF_CE_HIGHEv) for NRF24L01::NRF_CE_HIGH()
    nrf24l01.o(i._ZN8NRF24L0114NRF_SendPacketEPh) refers to gpio.o(i._ZN4GPIO8GetLevelEv) for GPIO::GetLevel()
    nrf24l01.o(i._ZN8NRF24L0114NRF_SendPacketEPh) refers to nrf24l01.o(i._ZN8NRF24L0111NRF_ReadRegEh) for NRF24L01::NRF_ReadReg(unsigned char)
    nrf24l01.o(i._ZN8NRF24L0114NRF_SendPacketEPh) refers to nrf24l01.o(i._ZN8NRF24L0112NRF_WriteRegEhh) for NRF24L01::NRF_WriteReg(unsigned char, unsigned char)
    nrf24l01.o(i._ZN8NRF24L0114SendBufferSizeEv) refers to spi.o(t._ZN10FIFOBufferIhLt64EE4SizeEv) for FIFOBuffer<unsigned char, (unsigned short)64>::Size()
    nrf24l01.o(i._ZN8NRF24L0115ClearSendBufferEv) refers to spi.o(t._ZN10FIFOBufferIhLt64EE5ClearEv) for FIFOBuffer<unsigned char, (unsigned short)64>::Clear()
    nrf24l01.o(i._ZN8NRF24L0115GetReceivedDataEPht) refers to spi.o(t._ZN10FIFOBufferIhLt64EE4SizeEv) for FIFOBuffer<unsigned char, (unsigned short)64>::Size()
    nrf24l01.o(i._ZN8NRF24L0115GetReceivedDataEPht) refers to spi.o(t._ZN10FIFOBufferIhLt64EE4GetsEPht) for FIFOBuffer<unsigned char, (unsigned short)64>::Gets(unsigned char*, unsigned short)
    nrf24l01.o(i._ZN8NRF24L0116NRF_ReceiverDataEPht) refers to spi.o(i._ZN3SPI15GetReceivedDataEPht) for SPI::GetReceivedData(unsigned char*, unsigned short)
    nrf24l01.o(i._ZN8NRF24L0117NRF_RecievePacketEPh) refers to spi.o(i._ZN3SPI8SetSpeedEh) for SPI::SetSpeed(unsigned char)
    nrf24l01.o(i._ZN8NRF24L0117NRF_RecievePacketEPh) refers to nrf24l01.o(i._ZN8NRF24L0111NRF_ReadRegEh) for NRF24L01::NRF_ReadReg(unsigned char)
    nrf24l01.o(i._ZN8NRF24L0117NRF_RecievePacketEPh) refers to nrf24l01.o(i._ZN8NRF24L0112NRF_WriteRegEhh) for NRF24L01::NRF_WriteReg(unsigned char, unsigned char)
    nrf24l01.o(i._ZN8NRF24L0117NRF_RecievePacketEPh) refers to nrf24l01.o(i._ZN8NRF24L0111NRF_ReadBufEhPhh) for NRF24L01::NRF_ReadBuf(unsigned char, unsigned char*, unsigned char)
    nrf24l01.o(i._ZN8NRF24L0117ReceiveBufferSizeEv) refers to spi.o(t._ZN10FIFOBufferIhLt64EE4SizeEv) for FIFOBuffer<unsigned char, (unsigned short)64>::Size()
    nrf24l01.o(i._ZN8NRF24L0118ClearReceiveBufferEv) refers to spi.o(t._ZN10FIFOBufferIhLt64EE5ClearEv) for FIFOBuffer<unsigned char, (unsigned short)64>::Clear()
    nrf24l01.o(i._ZN8NRF24L016IRQIrqEv) refers to stm32f10x_exti.o(i.EXTI_GetITStatus) for EXTI_GetITStatus
    nrf24l01.o(i._ZN8NRF24L016IRQIrqEv) refers to gpio.o(i._ZN4GPIO8GetLevelEv) for GPIO::GetLevel()
    nrf24l01.o(i._ZN8NRF24L016IRQIrqEv) refers to nrf24l01.o(i._ZN8NRF24L0111NRF_ReadRegEh) for NRF24L01::NRF_ReadReg(unsigned char)
    nrf24l01.o(i._ZN8NRF24L016IRQIrqEv) refers to nrf24l01.o(i._ZN8NRF24L0111NRF_ReadBufEhPhh) for NRF24L01::NRF_ReadBuf(unsigned char, unsigned char*, unsigned char)
    nrf24l01.o(i._ZN8NRF24L016IRQIrqEv) refers to nrf24l01.o(i._ZN8NRF24L0112NRF_WriteRegEhh) for NRF24L01::NRF_WriteReg(unsigned char, unsigned char)
    nrf24l01.o(i._ZN8NRF24L016IRQIrqEv) refers to spi.o(t._ZN10FIFOBufferIhLt64EE4PutsEPht) for FIFOBuffer<unsigned char, (unsigned short)64>::Puts(unsigned char*, unsigned short)
    nrf24l01.o(i._ZN8NRF24L016IRQIrqEv) refers to spi.o(t._ZN10FIFOBufferIhLt64EE4SizeEv) for FIFOBuffer<unsigned char, (unsigned short)64>::Size()
    nrf24l01.o(i._ZN8NRF24L016IRQIrqEv) refers to spi.o(t._ZN10FIFOBufferIhLt64EE4GetsEPht) for FIFOBuffer<unsigned char, (unsigned short)64>::Gets(unsigned char*, unsigned short)
    nrf24l01.o(i._ZN8NRF24L016IRQIrqEv) refers to nrf24l01.o(i._ZN8NRF24L0112NRF_WriteBufEhPhh) for NRF24L01::NRF_WriteBuf(unsigned char, unsigned char*, unsigned char)
    nrf24l01.o(i._ZN8NRF24L016IRQIrqEv) refers to stm32f10x_exti.o(i.EXTI_ClearITPendingBit) for EXTI_ClearITPendingBit
    nrf24l01.o(i._ZN8NRF24L016IRQIrqEv) refers to nrf24l01.o(.bss) for dataToSend
    nrf24l01.o(i._ZN8NRF24L018SendDataEPhj) refers to spi.o(i._ZN3SPI8SetSpeedEh) for SPI::SetSpeed(unsigned char)
    nrf24l01.o(i._ZN8NRF24L018SendDataEPhj) refers to spi.o(t._ZN10FIFOBufferIhLt64EE4PutsEPht) for FIFOBuffer<unsigned char, (unsigned short)64>::Puts(unsigned char*, unsigned short)
    nrf24l01.o(i._ZN8NRF24L018SendDataEPhj) refers to nrf24l01.o(i._ZN8NRF24L0110NRF_CE_LOWEv) for NRF24L01::NRF_CE_LOW()
    nrf24l01.o(i._ZN8NRF24L018SendDataEPhj) refers to spi.o(t._ZN10FIFOBufferIhLt64EE4GetsEPht) for FIFOBuffer<unsigned char, (unsigned short)64>::Gets(unsigned char*, unsigned short)
    nrf24l01.o(i._ZN8NRF24L018SendDataEPhj) refers to nrf24l01.o(i._ZN8NRF24L0112NRF_WriteBufEhPhh) for NRF24L01::NRF_WriteBuf(unsigned char, unsigned char*, unsigned char)
    nrf24l01.o(i._ZN8NRF24L018SendDataEPhj) refers to nrf24l01.o(i._ZN8NRF24L0111NRF_CE_HIGHEv) for NRF24L01::NRF_CE_HIGH()
    nrf24l01.o(i._ZN8NRF24L018SetCEPinEP12GPIO_TypeDeft) refers to gpio.o(i._ZN4GPIOC1EP12GPIO_TypeDeft16GPIOMode_TypeDef17GPIOSpeed_TypeDef) for GPIO::GPIO(GPIO_TypeDef*, unsigned short, GPIOMode_TypeDef, GPIOSpeed_TypeDef)
    nrf24l01.o(i._ZN8NRF24L018SetCEPinEP12GPIO_TypeDeft) refers to memcpya.o(.text) for __aeabi_memcpy4
    nrf24l01.o(i._ZN8NRF24L019NRF_CheckEv) refers to spi.o(i._ZN3SPI8SetSpeedEh) for SPI::SetSpeed(unsigned char)
    nrf24l01.o(i._ZN8NRF24L019NRF_CheckEv) refers to nrf24l01.o(i._ZN8NRF24L0112NRF_WriteBufEhPhh) for NRF24L01::NRF_WriteBuf(unsigned char, unsigned char*, unsigned char)
    nrf24l01.o(i._ZN8NRF24L019NRF_CheckEv) refers to nrf24l01.o(i._ZN8NRF24L0111NRF_ReadBufEhPhh) for NRF24L01::NRF_ReadBuf(unsigned char, unsigned char*, unsigned char)
    nrf24l01.o(i._ZN8NRF24L019NRF_ResetEv) refers to nrf24l01.o(i._ZN8NRF24L0111NRF_ReadRegEh) for NRF24L01::NRF_ReadReg(unsigned char)
    nrf24l01.o(i._ZN8NRF24L019NRF_ResetEv) refers to nrf24l01.o(i._ZN8NRF24L0112NRF_WriteRegEhh) for NRF24L01::NRF_WriteReg(unsigned char, unsigned char)
    nrf24l01.o(i._ZN8NRF24L019NRF_ResetEv) refers to nrf24l01.o(i._ZN8NRF24L0110NRF_CE_LOWEv) for NRF24L01::NRF_CE_LOW()
    nrf24l01.o(i._ZN8NRF24L019NRF_ResetEv) refers to nrf24l01.o(i._ZN8NRF24L0112NRF_CSN_HIGHEv) for NRF24L01::NRF_CSN_HIGH()
    nrf24l01.o(i._ZN8NRF24L019SetIRQPinEP12GPIO_TypeDeft) refers to gpio.o(i._ZN4GPIOC1EP12GPIO_TypeDeft16GPIOMode_TypeDef17GPIOSpeed_TypeDef) for GPIO::GPIO(GPIO_TypeDef*, unsigned short, GPIOMode_TypeDef, GPIOSpeed_TypeDef)
    nrf24l01.o(i._ZN8NRF24L019SetIRQPinEP12GPIO_TypeDeft) refers to memcpya.o(.text) for __aeabi_memcpy4
    nrf24l01.o(i._ZN8NRF24L019SetIRQPinEP12GPIO_TypeDeft) refers to stm32f10x_gpio.o(i.GPIO_EXTILineConfig) for GPIO_EXTILineConfig
    nrf24l01.o(i._ZN8NRF24L019SetIRQPinEP12GPIO_TypeDeft) refers to misc.o(i.NVIC_PriorityGroupConfig) for NVIC_PriorityGroupConfig
    nrf24l01.o(i._ZN8NRF24L019SetIRQPinEP12GPIO_TypeDeft) refers to misc.o(i.NVIC_Init) for NVIC_Init
    nrf24l01.o(i._ZN8NRF24L019SetIRQPinEP12GPIO_TypeDeft) refers to stm32f10x_exti.o(i.EXTI_Init) for EXTI_Init
    nrf24l01.o(i._ZN8NRF24L019SetIRQPinEP12GPIO_TypeDeft) refers to stm32f10x_exti.o(i.EXTI_ClearITPendingBit) for EXTI_ClearITPendingBit
    nrf24l01.o(i._ZN8NRF24L01C1ER3SPI) refers to spi.o(t._ZN10FIFOBufferIhLt64EEC1Ev) for FIFOBuffer<unsigned char, (unsigned short)64>::FIFOBuffer()
    nrf24l01.o(i._ZN8NRF24L01C1ER3SPI) refers to gpio.o(i._ZN4GPIOC1EP12GPIO_TypeDeft16GPIOMode_TypeDef17GPIOSpeed_TypeDef) for GPIO::GPIO(GPIO_TypeDef*, unsigned short, GPIOMode_TypeDef, GPIOSpeed_TypeDef)
    nrf24l01.o(i._ZN8NRF24L01C1ER3SPI) refers to nrf24l01.o(i._ZN8NRF24L018SetCEPinEP12GPIO_TypeDeft) for NRF24L01::SetCEPin(GPIO_TypeDef*, unsigned short)
    nrf24l01.o(i._ZN8NRF24L01C1ER3SPI) refers to nrf24l01.o(i._ZN8NRF24L019SetIRQPinEP12GPIO_TypeDeft) for NRF24L01::SetIRQPin(GPIO_TypeDef*, unsigned short)
    nrf24l01.o(i._ZN8NRF24L01C1ER3SPI) refers to nrf24l01.o(i._ZN8NRF24L019NRF_ResetEv) for NRF24L01::NRF_Reset()
    nrf24l01.o(i._ZN8NRF24L01C1ER3SPI) refers to nrf24l01.o(i._ZN8NRF24L0110NRF_CE_LOWEv) for NRF24L01::NRF_CE_LOW()
    nrf24l01.o(i._ZN8NRF24L01C1ER3SPI) refers to nrf24l01.o(i._ZN8NRF24L0112NRF_CSN_HIGHEv) for NRF24L01::NRF_CSN_HIGH()
    nrf24l01.o(i._ZN8NRF24L01C1ER3SPI) refers to interrupt.o(.data) for pNRF
    nrf24l01.o(.ARM.exidx) refers to nrf24l01.o(i._Z5Delayj) for i._Z5Delayj
    nrf24l01.o(.ARM.exidx) refers to nrf24l01.o(i._ZN8NRF24L0110SPI_NRF_RWEh) for i._ZN8NRF24L0110SPI_NRF_RWEh
    nrf24l01.o(.ARM.exidx) refers to nrf24l01.o(i._ZN8NRF24L0112NRF_WriteRegEhh) for i._ZN8NRF24L0112NRF_WriteRegEhh
    nrf24l01.o(.ARM.exidx) refers to nrf24l01.o(i._ZN8NRF24L0111NRF_ReadRegEh) for i._ZN8NRF24L0111NRF_ReadRegEh
    nrf24l01.o(.ARM.exidx) refers to nrf24l01.o(i._ZN8NRF24L019NRF_ResetEv) for i._ZN8NRF24L019NRF_ResetEv
    nrf24l01.o(.ARM.exidx) refers to nrf24l01.o(i._ZN8NRF24L019SetIRQPinEP12GPIO_TypeDeft) for i._ZN8NRF24L019SetIRQPinEP12GPIO_TypeDeft
    nrf24l01.o(.ARM.exidx) refers to nrf24l01.o(i._ZN8NRF24L018SetCEPinEP12GPIO_TypeDeft) for i._ZN8NRF24L018SetCEPinEP12GPIO_TypeDeft
    nrf24l01.o(.ARM.exidx) refers to nrf24l01.o(i._ZN8NRF24L01C1ER3SPI) for i._ZN8NRF24L01C1ER3SPI
    nrf24l01.o(.ARM.exidx) refers to nrf24l01.o(i._ZN8NRF24L0112NRF_SendDataEPhj) for i._ZN8NRF24L0112NRF_SendDataEPhj
    nrf24l01.o(.ARM.exidx) refers to nrf24l01.o(i._ZN8NRF24L0116NRF_ReceiverDataEPht) for i._ZN8NRF24L0116NRF_ReceiverDataEPht
    nrf24l01.o(.ARM.exidx) refers to nrf24l01.o(i._ZN8NRF24L0112NRF_WriteBufEhPhh) for i._ZN8NRF24L0112NRF_WriteBufEhPhh
    nrf24l01.o(.ARM.exidx) refers to nrf24l01.o(i._ZN8NRF24L0111NRF_ReadBufEhPhh) for i._ZN8NRF24L0111NRF_ReadBufEhPhh
    nrf24l01.o(.ARM.exidx) refers to nrf24l01.o(i._ZN8NRF24L0117NRF_RecievePacketEPh) for i._ZN8NRF24L0117NRF_RecievePacketEPh
    nrf24l01.o(.ARM.exidx) refers to nrf24l01.o(i._ZN8NRF24L0111NRF_TX_ModeEv) for i._ZN8NRF24L0111NRF_TX_ModeEv
    nrf24l01.o(.ARM.exidx) refers to nrf24l01.o(i._ZN8NRF24L0114NRF_SendPacketEPh) for i._ZN8NRF24L0114NRF_SendPacketEPh
    nrf24l01.o(.ARM.exidx) refers to nrf24l01.o(i._ZN8NRF24L0111NRF_RX_ModeEv) for i._ZN8NRF24L0111NRF_RX_ModeEv
    nrf24l01.o(.ARM.exidx) refers to nrf24l01.o(i._ZN8NRF24L019NRF_CheckEv) for i._ZN8NRF24L019NRF_CheckEv
    nrf24l01.o(.ARM.exidx) refers to nrf24l01.o(i._ZN8NRF24L016IRQIrqEv) for i._ZN8NRF24L016IRQIrqEv
    nrf24l01.o(.ARM.exidx) refers to nrf24l01.o(i._ZN8NRF24L018SendDataEPhj) for i._ZN8NRF24L018SendDataEPhj
    nrf24l01.o(.ARM.exidx) refers to nrf24l01.o(i._ZN8NRF24L0115GetReceivedDataEPht) for i._ZN8NRF24L0115GetReceivedDataEPht
    nrf24l01.o(.ARM.exidx) refers to nrf24l01.o(i._ZN8NRF24L0117ReceiveBufferSizeEv) for i._ZN8NRF24L0117ReceiveBufferSizeEv
    nrf24l01.o(.ARM.exidx) refers to nrf24l01.o(i._ZN8NRF24L0114SendBufferSizeEv) for i._ZN8NRF24L0114SendBufferSizeEv
    nrf24l01.o(.ARM.exidx) refers to nrf24l01.o(i._ZN8NRF24L0118ClearReceiveBufferEv) for i._ZN8NRF24L0118ClearReceiveBufferEv
    nrf24l01.o(.ARM.exidx) refers to nrf24l01.o(i._ZN8NRF24L0115ClearSendBufferEv) for i._ZN8NRF24L0115ClearSendBufferEv
    flash.o(i._ZN5flash4ReadEtt) refers to fflti.o(.text) for __aeabi_i2f
    flash.o(i._ZN5flash4ReadEtt) refers to fdiv.o(.text) for __aeabi_fdiv
    flash.o(i._ZN5flash4ReadEtt) refers to fadd.o(.text) for __aeabi_fadd
    flash.o(i._ZN5flash5ClearEt) refers to stm32f10x_flash.o(i.FLASH_Unlock) for FLASH_Unlock
    flash.o(i._ZN5flash5ClearEt) refers to stm32f10x_flash.o(i.FLASH_ClearFlag) for FLASH_ClearFlag
    flash.o(i._ZN5flash5ClearEt) refers to stm32f10x_flash.o(i.FLASH_ErasePage) for FLASH_ErasePage
    flash.o(i._ZN5flash5ClearEt) refers to stm32f10x_flash.o(i.FLASH_Lock) for FLASH_Lock
    flash.o(i._ZN5flash5WriteEtPht) refers to stm32f10x_flash.o(i.FLASH_Unlock) for FLASH_Unlock
    flash.o(i._ZN5flash5WriteEtPht) refers to stm32f10x_flash.o(i.FLASH_ClearFlag) for FLASH_ClearFlag
    flash.o(i._ZN5flash5WriteEtPht) refers to stm32f10x_flash.o(i.FLASH_ErasePage) for FLASH_ErasePage
    flash.o(i._ZN5flash5WriteEtPht) refers to stm32f10x_flash.o(i.FLASH_ProgramHalfWord) for FLASH_ProgramHalfWord
    flash.o(i._ZN5flash5WriteEtPht) refers to stm32f10x_flash.o(i.FLASH_ProgramWord) for FLASH_ProgramWord
    flash.o(i._ZN5flash5WriteEtPht) refers to stm32f10x_flash.o(i.FLASH_Lock) for FLASH_Lock
    flash.o(i._ZN5flash5WriteEtPjt) refers to stm32f10x_flash.o(i.FLASH_Unlock) for FLASH_Unlock
    flash.o(i._ZN5flash5WriteEtPjt) refers to stm32f10x_flash.o(i.FLASH_ClearFlag) for FLASH_ClearFlag
    flash.o(i._ZN5flash5WriteEtPjt) refers to stm32f10x_flash.o(i.FLASH_ErasePage) for FLASH_ErasePage
    flash.o(i._ZN5flash5WriteEtPjt) refers to stm32f10x_flash.o(i.FLASH_ProgramHalfWord) for FLASH_ProgramHalfWord
    flash.o(i._ZN5flash5WriteEtPjt) refers to stm32f10x_flash.o(i.FLASH_ProgramWord) for FLASH_ProgramWord
    flash.o(i._ZN5flash5WriteEtPjt) refers to stm32f10x_flash.o(i.FLASH_Lock) for FLASH_Lock
    flash.o(i._ZN5flash5WriteEttPc) refers to stm32f10x_flash.o(i.FLASH_Unlock) for FLASH_Unlock
    flash.o(i._ZN5flash5WriteEttPc) refers to stm32f10x_flash.o(i.FLASH_ClearFlag) for FLASH_ClearFlag
    flash.o(i._ZN5flash5WriteEttPc) refers to stm32f10x_flash.o(i.FLASH_ErasePage) for FLASH_ErasePage
    flash.o(i._ZN5flash5WriteEttPc) refers to stm32f10x_flash.o(i.FLASH_ProgramHalfWord) for FLASH_ProgramHalfWord
    flash.o(i._ZN5flash5WriteEttPc) refers to stm32f10x_flash.o(i.FLASH_Lock) for FLASH_Lock
    flash.o(i._ZN5flash5WriteEttPtt) refers to stm32f10x_flash.o(i.FLASH_Unlock) for FLASH_Unlock
    flash.o(i._ZN5flash5WriteEttPtt) refers to stm32f10x_flash.o(i.FLASH_ClearFlag) for FLASH_ClearFlag
    flash.o(i._ZN5flash5WriteEttPtt) refers to stm32f10x_flash.o(i.FLASH_ErasePage) for FLASH_ErasePage
    flash.o(i._ZN5flash5WriteEttPtt) refers to stm32f10x_flash.o(i.FLASH_ProgramHalfWord) for FLASH_ProgramHalfWord
    flash.o(i._ZN5flash5WriteEttPtt) refers to stm32f10x_flash.o(i.FLASH_ProgramWord) for FLASH_ProgramWord
    flash.o(i._ZN5flash5WriteEttPtt) refers to stm32f10x_flash.o(i.FLASH_Lock) for FLASH_Lock
    flash.o(i._ZN5flash5WriteEttf) refers to stm32f10x_flash.o(i.FLASH_Unlock) for FLASH_Unlock
    flash.o(i._ZN5flash5WriteEttf) refers to stm32f10x_flash.o(i.FLASH_ClearFlag) for FLASH_ClearFlag
    flash.o(i._ZN5flash5WriteEttf) refers to stm32f10x_flash.o(i.FLASH_ErasePage) for FLASH_ErasePage
    flash.o(i._ZN5flash5WriteEttf) refers to cfrcmple.o(.text) for __aeabi_cfrcmple
    flash.o(i._ZN5flash5WriteEttf) refers to fmul.o(.text) for __aeabi_fmul
    flash.o(i._ZN5flash5WriteEttf) refers to ffixui.o(.text) for __aeabi_f2uiz
    flash.o(i._ZN5flash5WriteEttf) refers to stm32f10x_flash.o(i.FLASH_ProgramHalfWord) for FLASH_ProgramHalfWord
    flash.o(i._ZN5flash5WriteEttf) refers to stm32f10x_flash.o(i.FLASH_Lock) for FLASH_Lock
    flash.o(.ARM.exidx) refers to flash.o(i._ZN5flashC1Ejb) for i._ZN5flashC1Ejb
    flash.o(.ARM.exidx) refers to flash.o(i._ZN5flash4ReadEttPtt) for i._ZN5flash4ReadEttPtt
    flash.o(.ARM.exidx) refers to flash.o(i._ZN5flash5WriteEtPht) for i._ZN5flash5WriteEtPht
    flash.o(.ARM.exidx) refers to flash.o(i._ZN5flash5WriteEttPtt) for i._ZN5flash5WriteEttPtt
    flash.o(.ARM.exidx) refers to flash.o(i._ZN5flash5WriteEttf) for i._ZN5flash5WriteEttf
    flash.o(.ARM.exidx) refers to flash.o(i._ZN5flash4ReadEtt) for i._ZN5flash4ReadEtt
    flash.o(.ARM.exidx) refers to flash.o(i._ZN5flash5WriteEtPjt) for i._ZN5flash5WriteEtPjt
    flash.o(.ARM.exidx) refers to flash.o(i._ZN5flash5WriteEttPc) for i._ZN5flash5WriteEttPc
    flash.o(.ARM.exidx) refers to flash.o(i._ZN5flash4ReadEttPc) for i._ZN5flash4ReadEttPc
    flash.o(.ARM.exidx) refers to flash.o(i._ZN5flash5ClearEt) for i._ZN5flash5ClearEt
    hmc5883l.o(i._ZN8HMC5883L10GetDataRawEv) refers to hmc5883l.o(t._ZN7Vector3IiEC1Ev) for Vector3<int>::Vector3()
    hmc5883l.o(i._ZN8HMC5883L10GetDataRawEv) refers to fflti.o(.text) for __aeabi_i2f
    hmc5883l.o(i._ZN8HMC5883L10GetDataRawEv) refers to fmul.o(.text) for __aeabi_fmul
    hmc5883l.o(i._ZN8HMC5883L10GetDataRawEv) refers to fadd.o(.text) for __aeabi_fadd
    hmc5883l.o(i._ZN8HMC5883L10GetDataRawEv) refers to ffixi.o(.text) for __aeabi_f2iz
    hmc5883l.o(i._ZN8HMC5883L14TestConnectionEb) refers to i2c.o(i._ZN3I2C20WaitTransmitCompleteEbbb) for I2C::WaitTransmitComplete(bool, bool, bool)
    hmc5883l.o(i._ZN8HMC5883L14TestConnectionEb) refers to i2c.o(i._ZN3I2C12ClearCommandEv) for I2C::ClearCommand()
    hmc5883l.o(i._ZN8HMC5883L14TestConnectionEb) refers to i2c.o(i._ZN3I2C8IsHealthEv) for I2C::IsHealth()
    hmc5883l.o(i._ZN8HMC5883L14TestConnectionEb) refers to i2c.o(i._ZN3I2C4InitEv) for I2C::Init()
    hmc5883l.o(i._ZN8HMC5883L14TestConnectionEb) refers to i2c.o(i._ZN3I2C10AddCommandEhhPhhS0_hbP6Sensor) for I2C::AddCommand(unsigned char, unsigned char, unsigned char*, unsigned char, unsigned char*, unsigned char, bool, Sensor*)
    hmc5883l.o(i._ZN8HMC5883L14TestConnectionEb) refers to i2c.o(i._ZN3I2C13StartCMDQueueEv) for I2C::StartCMDQueue()
    hmc5883l.o(i._ZN8HMC5883L17GetUpdateIntervalEv) refers to d2f.o(.text) for __aeabi_d2f
    hmc5883l.o(i._ZN8HMC5883L17GetUpdateIntervalEv) refers to f2d.o(.text) for __aeabi_f2d
    hmc5883l.o(i._ZN8HMC5883L21GetNoCalibrateDataRawEv) refers to hmc5883l.o(t._ZN7Vector3IiEC1Ev) for Vector3<int>::Vector3()
    hmc5883l.o(i._ZN8HMC5883L4InitEb) refers to i2c.o(i._ZN3I2C20WaitTransmitCompleteEbbb) for I2C::WaitTransmitComplete(bool, bool, bool)
    hmc5883l.o(i._ZN8HMC5883L4InitEb) refers to i2c.o(i._ZN3I2C10AddCommandEhhPhhS0_hbP6Sensor) for I2C::AddCommand(unsigned char, unsigned char, unsigned char*, unsigned char, unsigned char*, unsigned char, bool, Sensor*)
    hmc5883l.o(i._ZN8HMC5883L4InitEb) refers to i2c.o(i._ZN3I2C13StartCMDQueueEv) for I2C::StartCMDQueue()
    hmc5883l.o(i._ZN8HMC5883L4InitEffffffb) refers to i2c.o(i._ZN3I2C20WaitTransmitCompleteEbbb) for I2C::WaitTransmitComplete(bool, bool, bool)
    hmc5883l.o(i._ZN8HMC5883L4InitEffffffb) refers to i2c.o(i._ZN3I2C10AddCommandEhhPhhS0_hbP6Sensor) for I2C::AddCommand(unsigned char, unsigned char, unsigned char*, unsigned char, unsigned char*, unsigned char, bool, Sensor*)
    hmc5883l.o(i._ZN8HMC5883L4InitEffffffb) refers to i2c.o(i._ZN3I2C13StartCMDQueueEv) for I2C::StartCMDQueue()
    hmc5883l.o(i._ZN8HMC5883L4InitEffffffb) refers to hmc5883l.o(i._ZN8HMC5883L21SetCalibrateRatioBiasEffffff) for HMC5883L::SetCalibrateRatioBias(float, float, float, float, float, float)
    hmc5883l.o(i._ZN8HMC5883L6UpdateEbP7Vector3IiE) refers to i2c.o(i._ZN3I2C20WaitTransmitCompleteEbbb) for I2C::WaitTransmitComplete(bool, bool, bool)
    hmc5883l.o(i._ZN8HMC5883L6UpdateEbP7Vector3IiE) refers to i2c.o(i._ZN3I2C10AddCommandEhhPhhS0_hbP6Sensor) for I2C::AddCommand(unsigned char, unsigned char, unsigned char*, unsigned char, unsigned char*, unsigned char, bool, Sensor*)
    hmc5883l.o(i._ZN8HMC5883L6UpdateEbP7Vector3IiE) refers to hmc5883l.o(i._ZN8HMC5883L8IsLockedEv) for HMC5883L::IsLocked()
    hmc5883l.o(i._ZN8HMC5883L6UpdateEbP7Vector3IiE) refers to i2c.o(i._ZN3I2C13StartCMDQueueEv) for I2C::StartCMDQueue()
    hmc5883l.o(i._ZN8HMC5883L6UpdateEbP7Vector3IiE) refers to i2c.o(i._ZN3I2C12ClearCommandEv) for I2C::ClearCommand()
    hmc5883l.o(i._ZN8HMC5883L6UpdateEbP7Vector3IiE) refers to i2c.o(i._ZN3I2C4InitEv) for I2C::Init()
    hmc5883l.o(i._ZN8HMC5883L6UpdateEbP7Vector3IiE) refers to hmc5883l.o(i._ZN8HMC5883L4InitEb) for HMC5883L::Init(bool)
    hmc5883l.o(i._ZN8HMC5883L6UpdateEbP7Vector3IiE) refers to hmc5883l.o(.data) for IIC_Write_Temp
    hmc5883l.o(i._ZN8HMC5883L7HeadingEv) refers to dflti.o(.text) for __aeabi_i2d
    hmc5883l.o(i._ZN8HMC5883L7HeadingEv) refers to atan2.o(i.atan2) for atan2
    hmc5883l.o(i._ZN8HMC5883L7HeadingEv) refers to cdcmple.o(.text) for __aeabi_cdcmple
    hmc5883l.o(i._ZN8HMC5883L7HeadingEv) refers to dadd.o(.text) for __aeabi_dadd
    hmc5883l.o(i._ZN8HMC5883L7HeadingEv) refers to dmul.o(.text) for __aeabi_dmul
    hmc5883l.o(i._ZN8HMC5883L7HeadingEv) refers to ddiv.o(.text) for __aeabi_ddiv
    hmc5883l.o(i._ZN8HMC5883L7HeadingEv) refers to cdrcmple.o(.text) for __aeabi_cdrcmple
    hmc5883l.o(i._ZN8HMC5883L7HeadingEv) refers to d2f.o(.text) for __aeabi_d2f
    hmc5883l.o(i._ZN8HMC5883L9CalibrateEd) refers to memseta.o(.text) for __aeabi_memclr4
    hmc5883l.o(i._ZN8HMC5883L9CalibrateEd) refers to taskmanager.o(i._ZN11TaskManager9TimeSliceERdd) for TaskManager::TimeSlice(double&, double)
    hmc5883l.o(i._ZN8HMC5883L9CalibrateEd) refers to hmc5883l.o(i._ZN8HMC5883L6UpdateEbP7Vector3IiE) for HMC5883L::Update(bool, Vector3<int>*)
    hmc5883l.o(i._ZN8HMC5883L9CalibrateEd) refers to hmc5883l.o(i._ZN8HMC5883L21GetNoCalibrateDataRawEv) for HMC5883L::GetNoCalibrateDataRaw()
    hmc5883l.o(i._ZN8HMC5883L9CalibrateEd) refers to taskmanager.o(i._ZN11TaskManager4TimeEv) for TaskManager::Time()
    hmc5883l.o(i._ZN8HMC5883L9CalibrateEd) refers to usart.o(i._ZN5USARTlsEi) for USART::operator <<(int)
    hmc5883l.o(i._ZN8HMC5883L9CalibrateEd) refers to usart.o(i._ZN5USARTlsEPKc) for USART::operator <<(const char*)
    hmc5883l.o(i._ZN8HMC5883L9CalibrateEd) refers to dadd.o(.text) for __aeabi_dsub
    hmc5883l.o(i._ZN8HMC5883L9CalibrateEd) refers to cdrcmple.o(.text) for __aeabi_cdrcmple
    hmc5883l.o(i._ZN8HMC5883L9CalibrateEd) refers to fflti.o(.text) for __aeabi_i2f
    hmc5883l.o(i._ZN8HMC5883L9CalibrateEd) refers to fdiv.o(.text) for __aeabi_fdiv
    hmc5883l.o(i._ZN8HMC5883L9CalibrateEd) refers to fmul.o(.text) for __aeabi_fmul
    hmc5883l.o(i._ZN8HMC5883L9CalibrateEd) refers to fadd.o(.text) for __aeabi_fsub
    hmc5883l.o(i._ZN8HMC5883L9CalibrateEd) refers to hmc5883l.o(i._ZN8HMC5883L21SetCalibrateRatioBiasEffffff) for HMC5883L::SetCalibrateRatioBias(float, float, float, float, float, float)
    hmc5883l.o(i._ZN8HMC5883L9CalibrateEd) refers to main.o(.bss) for usart1
    hmc5883l.o(.ARM.exidx) refers to hmc5883l.o(i._ZN8HMC5883LC1ER3I2C) for i._ZN8HMC5883LC1ER3I2C
    hmc5883l.o(.ARM.exidx) refers to hmc5883l.o(i._ZN8HMC5883L4InitEb) for i._ZN8HMC5883L4InitEb
    hmc5883l.o(.ARM.exidx) refers to hmc5883l.o(i._ZN8HMC5883L21SetCalibrateRatioBiasEffffff) for i._ZN8HMC5883L21SetCalibrateRatioBiasEffffff
    hmc5883l.o(.ARM.exidx) refers to hmc5883l.o(i._ZN8HMC5883L4InitEffffffb) for i._ZN8HMC5883L4InitEffffffb
    hmc5883l.o(.ARM.exidx) refers to hmc5883l.o(i._ZN8HMC5883L9GetHealthEv) for i._ZN8HMC5883L9GetHealthEv
    hmc5883l.o(.ARM.exidx) refers to hmc5883l.o(i._ZN8HMC5883L14TestConnectionEb) for i._ZN8HMC5883L14TestConnectionEb
    hmc5883l.o(.ARM.exidx) refers to hmc5883l.o(i._ZN8HMC5883L14GetReadyStatusEv) for i._ZN8HMC5883L14GetReadyStatusEv
    hmc5883l.o(.ARM.exidx) refers to hmc5883l.o(i._ZN8HMC5883L8IsLockedEv) for i._ZN8HMC5883L8IsLockedEv
    hmc5883l.o(.ARM.exidx) refers to hmc5883l.o(i._ZN8HMC5883L6UpdateEbP7Vector3IiE) for i._ZN8HMC5883L6UpdateEbP7Vector3IiE
    hmc5883l.o(.ARM.exidx) refers to hmc5883l.o(i._ZN8HMC5883L10GetDataRawEv) for i._ZN8HMC5883L10GetDataRawEv
    hmc5883l.o(.ARM.exidx) refers to hmc5883l.o(i._ZN8HMC5883L21GetNoCalibrateDataRawEv) for i._ZN8HMC5883L21GetNoCalibrateDataRawEv
    hmc5883l.o(.ARM.exidx) refers to hmc5883l.o(i._ZN8HMC5883L7HeadingEv) for i._ZN8HMC5883L7HeadingEv
    hmc5883l.o(.ARM.exidx) refers to hmc5883l.o(i._ZN8HMC5883L17GetUpdateIntervalEv) for i._ZN8HMC5883L17GetUpdateIntervalEv
    hmc5883l.o(.ARM.exidx) refers to hmc5883l.o(i._ZN8HMC5883L21SetCalibrateRatioBiasEffff) for i._ZN8HMC5883L21SetCalibrateRatioBiasEffff
    hmc5883l.o(.ARM.exidx) refers to hmc5883l.o(i._ZN8HMC5883L9CalibrateEd) for i._ZN8HMC5883L9CalibrateEd
    hmc5883l.o(.ARM.exidx) refers to hmc5883l.o(i._ZN8HMC5883L12IsCalibratedEv) for i._ZN8HMC5883L12IsCalibratedEv
    mpu6050.o(i._ZN7mpu605010BypassModeEb) refers to i2c.o(i._ZN3I2C20WaitTransmitCompleteEbbb) for I2C::WaitTransmitComplete(bool, bool, bool)
    mpu6050.o(i._ZN7mpu605010BypassModeEb) refers to i2c.o(i._ZN3I2C10AddCommandEhhPhhS0_hbP6Sensor) for I2C::AddCommand(unsigned char, unsigned char, unsigned char*, unsigned char, unsigned char*, unsigned char, bool, Sensor*)
    mpu6050.o(i._ZN7mpu605010BypassModeEb) refers to i2c.o(i._ZN3I2C13StartCMDQueueEv) for I2C::StartCMDQueue()
    mpu6050.o(i._ZN7mpu605012GetGyrDegreeEv) refers to mpu6050.o(t._ZN7Vector3IfEC1Ev) for Vector3<float>::Vector3()
    mpu6050.o(i._ZN7mpu605012GetGyrDegreeEv) refers to dflti.o(.text) for __aeabi_i2d
    mpu6050.o(i._ZN7mpu605012GetGyrDegreeEv) refers to dmul.o(.text) for __aeabi_dmul
    mpu6050.o(i._ZN7mpu605012GetGyrDegreeEv) refers to d2f.o(.text) for __aeabi_d2f
    mpu6050.o(i._ZN7mpu605017GetUpdateIntervalEv) refers to d2f.o(.text) for __aeabi_d2f
    mpu6050.o(i._ZN7mpu605017GetUpdateIntervalEv) refers to f2d.o(.text) for __aeabi_f2d
    mpu6050.o(i._ZN7mpu60504InitEb) refers to i2c.o(i._ZN3I2C20WaitTransmitCompleteEbbb) for I2C::WaitTransmitComplete(bool, bool, bool)
    mpu6050.o(i._ZN7mpu60504InitEb) refers to i2c.o(i._ZN3I2C10AddCommandEhhPhhS0_hbP6Sensor) for I2C::AddCommand(unsigned char, unsigned char, unsigned char*, unsigned char, unsigned char*, unsigned char, bool, Sensor*)
    mpu6050.o(i._ZN7mpu60504InitEb) refers to i2c.o(i._ZN3I2C13StartCMDQueueEv) for I2C::StartCMDQueue()
    mpu6050.o(i._ZN7mpu60504InitEb) refers to mpu6050.o(i._ZN7mpu605010BypassModeEb) for mpu6050::BypassMode(bool)
    mpu6050.o(i._ZN7mpu60506GetAccEv) refers to mpu6050.o(t._ZN7Vector3IfEC1Ev) for Vector3<float>::Vector3()
    mpu6050.o(i._ZN7mpu60506GetAccEv) refers to fflti.o(.text) for __aeabi_i2f
    mpu6050.o(i._ZN7mpu60506GetAccEv) refers to fdiv.o(.text) for __aeabi_fdiv
    mpu6050.o(i._ZN7mpu60506GetGyrEv) refers to mpu6050.o(t._ZN7Vector3IfEC1Ev) for Vector3<float>::Vector3()
    mpu6050.o(i._ZN7mpu60506GetGyrEv) refers to dflti.o(.text) for __aeabi_i2d
    mpu6050.o(i._ZN7mpu60506GetGyrEv) refers to dmul.o(.text) for __aeabi_dmul
    mpu6050.o(i._ZN7mpu60506GetGyrEv) refers to d2f.o(.text) for __aeabi_d2f
    mpu6050.o(i._ZN7mpu60506UpdateEbP7Vector3IiES2_) refers to taskmanager.o(i._ZN11TaskManager4TimeEv) for TaskManager::Time()
    mpu6050.o(i._ZN7mpu60506UpdateEbP7Vector3IiES2_) refers to dfltui.o(.text) for __aeabi_ui2d
    mpu6050.o(i._ZN7mpu60506UpdateEbP7Vector3IiES2_) refers to ddiv.o(.text) for __aeabi_ddiv
    mpu6050.o(i._ZN7mpu60506UpdateEbP7Vector3IiES2_) refers to dadd.o(.text) for __aeabi_dsub
    mpu6050.o(i._ZN7mpu60506UpdateEbP7Vector3IiES2_) refers to cdcmple.o(.text) for __aeabi_cdcmple
    mpu6050.o(i._ZN7mpu60506UpdateEbP7Vector3IiES2_) refers to i2c.o(i._ZN3I2C20WaitTransmitCompleteEbbb) for I2C::WaitTransmitComplete(bool, bool, bool)
    mpu6050.o(i._ZN7mpu60506UpdateEbP7Vector3IiES2_) refers to i2c.o(i._ZN3I2C10AddCommandEhhPhhS0_hbP6Sensor) for I2C::AddCommand(unsigned char, unsigned char, unsigned char*, unsigned char, unsigned char*, unsigned char, bool, Sensor*)
    mpu6050.o(i._ZN7mpu60506UpdateEbP7Vector3IiES2_) refers to i2c.o(i._ZN3I2C13StartCMDQueueEv) for I2C::StartCMDQueue()
    mpu6050.o(i._ZN7mpu60506UpdateEbP7Vector3IiES2_) refers to i2c.o(i._ZN3I2C4InitEv) for I2C::Init()
    mpu6050.o(i._ZN7mpu60506UpdateEbP7Vector3IiES2_) refers to mpu6050.o(i._ZN7mpu60504InitEb) for mpu6050::Init(bool)
    mpu6050.o(i._ZN7mpu60506UpdateEbP7Vector3IiES2_) refers to mpu6050.o(i._ZN7mpu60509GetHealthEv) for mpu6050::GetHealth()
    mpu6050.o(i._ZN7mpu60506UpdateEbP7Vector3IiES2_) refers to mpu6050.o(i._ZN7mpu60509GetAccRawEv) for mpu6050::GetAccRaw()
    mpu6050.o(i._ZN7mpu60506UpdateEbP7Vector3IiES2_) refers to mpu6050.o(t._ZN7Vector3IiEaSERKS0_) for Vector3<int>::operator =(const Vector3<int>&)
    mpu6050.o(i._ZN7mpu60506UpdateEbP7Vector3IiES2_) refers to mpu6050.o(i._ZN7mpu60509GetGyrRawEv) for mpu6050::GetGyrRaw()
    mpu6050.o(i._ZN7mpu60506UpdateEbP7Vector3IiES2_) refers to cxa_guard_acquire.o(i.__cxa_guard_acquire) for __cxa_guard_acquire
    mpu6050.o(i._ZN7mpu60506UpdateEbP7Vector3IiES2_) refers to hmc5883l.o(t._ZN7Vector3IiEC1Ev) for Vector3<int>::Vector3()
    mpu6050.o(i._ZN7mpu60506UpdateEbP7Vector3IiES2_) refers to usart.o(i._ZN5USARTlsEi) for USART::operator <<(int)
    mpu6050.o(i._ZN7mpu60506UpdateEbP7Vector3IiES2_) refers to usart.o(i._ZN5USARTlsEPKc) for USART::operator <<(const char*)
    mpu6050.o(i._ZN7mpu60506UpdateEbP7Vector3IiES2_) refers to dflti.o(.text) for __aeabi_i2d
    mpu6050.o(i._ZN7mpu60506UpdateEbP7Vector3IiES2_) refers to dmul.o(.text) for __aeabi_dmul
    mpu6050.o(i._ZN7mpu60506UpdateEbP7Vector3IiES2_) refers to dfixi.o(.text) for __aeabi_d2iz
    mpu6050.o(i._ZN7mpu60506UpdateEbP7Vector3IiES2_) refers to mpu6050.o(.data) for timeNow
    mpu6050.o(i._ZN7mpu60506UpdateEbP7Vector3IiES2_) refers to mpu6050.o(.bss) for gyroCalibrate_sum
    mpu6050.o(i._ZN7mpu60506UpdateEbP7Vector3IiES2_) refers to main.o(.bss) for usart1
    mpu6050.o(i._ZN7mpu60509GetAccRawEv) refers to hmc5883l.o(t._ZN7Vector3IiEC1Ev) for Vector3<int>::Vector3()
    mpu6050.o(i._ZN7mpu60509GetHealthEv) refers to i2c.o(i._ZN3I2C8IsHealthEv) for I2C::IsHealth()
    mpu6050.o(i._ZN7mpu6050C1ER3I2Ct) refers to hmc5883l.o(t._ZN7Vector3IiEC1Ev) for Vector3<int>::Vector3()
    mpu6050.o(.ARM.exidx) refers to mpu6050.o(i._ZN7mpu6050C1ER3I2Ct) for i._ZN7mpu6050C1ER3I2Ct
    mpu6050.o(.ARM.exidx) refers to mpu6050.o(i._ZN7mpu6050D1Ev) for i._ZN7mpu6050D1Ev
    mpu6050.o(.ARM.exidx) refers to mpu6050.o(i._ZN7mpu605010BypassModeEb) for i._ZN7mpu605010BypassModeEb
    mpu6050.o(.ARM.exidx) refers to mpu6050.o(i._ZN7mpu60504InitEb) for i._ZN7mpu60504InitEb
    mpu6050.o(.ARM.exidx) refers to mpu6050.o(i._ZN7mpu605021SetMaxUpdateFrequencyEt) for i._ZN7mpu605021SetMaxUpdateFrequencyEt
    mpu6050.o(.ARM.exidx) refers to mpu6050.o(i._ZN7mpu605021GetMaxUpdateFrequencyEv) for i._ZN7mpu605021GetMaxUpdateFrequencyEv
    mpu6050.o(.ARM.exidx) refers to mpu6050.o(i._ZN7mpu60509GetAccRawEv) for i._ZN7mpu60509GetAccRawEv
    mpu6050.o(.ARM.exidx) refers to mpu6050.o(i._ZN7mpu60509GetGyrRawEv) for i._ZN7mpu60509GetGyrRawEv
    mpu6050.o(.ARM.exidx) refers to mpu6050.o(i._ZN7mpu605010GetTempRawEv) for i._ZN7mpu605010GetTempRawEv
    mpu6050.o(.ARM.exidx) refers to mpu6050.o(i._ZN7mpu60506GetGyrEv) for i._ZN7mpu60506GetGyrEv
    mpu6050.o(.ARM.exidx) refers to mpu6050.o(i._ZN7mpu605012GetGyrDegreeEv) for i._ZN7mpu605012GetGyrDegreeEv
    mpu6050.o(.ARM.exidx) refers to mpu6050.o(i._ZN7mpu60506GetAccEv) for i._ZN7mpu60506GetAccEv
    mpu6050.o(.ARM.exidx) refers to mpu6050.o(i._ZN7mpu605012GetGyrOffsetEv) for i._ZN7mpu605012GetGyrOffsetEv
    mpu6050.o(.ARM.exidx) refers to mpu6050.o(i._ZN7mpu60509GetHealthEv) for i._ZN7mpu60509GetHealthEv
    mpu6050.o(.ARM.exidx) refers to mpu6050.o(i._ZN7mpu60506UpdateEbP7Vector3IiES2_) for i._ZN7mpu60506UpdateEbP7Vector3IiES2_
    mpu6050.o(.ARM.exidx) refers to mpu6050.o(i._ZN7mpu605018StartGyroCalibrateEv) for i._ZN7mpu605018StartGyroCalibrateEv
    mpu6050.o(.ARM.exidx) refers to mpu6050.o(i._ZN7mpu605017StopGyroCalibrateEv) for i._ZN7mpu605017StopGyroCalibrateEv
    mpu6050.o(.ARM.exidx) refers to mpu6050.o(i._ZN7mpu605017IsGyroCalibratingEv) for i._ZN7mpu605017IsGyroCalibratingEv
    mpu6050.o(.ARM.exidx) refers to mpu6050.o(i._ZN7mpu605017GetUpdateIntervalEv) for i._ZN7mpu605017GetUpdateIntervalEv
    attitude.o(i._ZN19AttitudeCalculation20NonlinearSO3AHRSinitEffffff) refers to attitude.o(i._ZSt5atan2ff) for std::atan2(float, float)
    attitude.o(i._ZN19AttitudeCalculation20NonlinearSO3AHRSinitEffffff) refers to cosf.o(i.cosf) for cosf
    attitude.o(i._ZN19AttitudeCalculation20NonlinearSO3AHRSinitEffffff) refers to sinf.o(i.sinf) for sinf
    attitude.o(i._ZN19AttitudeCalculation20NonlinearSO3AHRSinitEffffff) refers to fmul.o(.text) for __aeabi_fmul
    attitude.o(i._ZN19AttitudeCalculation20NonlinearSO3AHRSinitEffffff) refers to fadd.o(.text) for __aeabi_fadd
    attitude.o(i._ZN19AttitudeCalculation20NonlinearSO3AHRSinitEffffff) refers to atan2f.o(i.atan2f) for atan2f
    attitude.o(i._ZN19AttitudeCalculation22NonlinearSO3AHRSupdateEffffffffffff) refers to attitude.o(i._ZN19AttitudeCalculation20NonlinearSO3AHRSinitEffffff) for AttitudeCalculation::NonlinearSO3AHRSinit(float, float, float, float, float, float)
    attitude.o(i._ZN19AttitudeCalculation22NonlinearSO3AHRSupdateEffffffffffff) refers to cfcmple.o(.text) for __aeabi_cfcmpeq
    attitude.o(i._ZN19AttitudeCalculation22NonlinearSO3AHRSupdateEffffffffffff) refers to fmul.o(.text) for __aeabi_fmul
    attitude.o(i._ZN19AttitudeCalculation22NonlinearSO3AHRSupdateEffffffffffff) refers to fadd.o(.text) for __aeabi_fadd
    attitude.o(i._ZN19AttitudeCalculation22NonlinearSO3AHRSupdateEffffffffffff) refers to attitude.o(i._ZSt4sqrtf) for std::sqrt(float)
    attitude.o(i._ZN19AttitudeCalculation22NonlinearSO3AHRSupdateEffffffffffff) refers to f2d.o(.text) for __aeabi_f2d
    attitude.o(i._ZN19AttitudeCalculation22NonlinearSO3AHRSupdateEffffffffffff) refers to ddiv.o(.text) for __aeabi_ddiv
    attitude.o(i._ZN19AttitudeCalculation22NonlinearSO3AHRSupdateEffffffffffff) refers to d2f.o(.text) for __aeabi_d2f
    attitude.o(i._ZN19AttitudeCalculation22NonlinearSO3AHRSupdateEffffffffffff) refers to cfrcmple.o(.text) for __aeabi_cfrcmple
    attitude.o(i._ZN19AttitudeCalculation8GetAngleE7Vector3IiES0_IfES1_f) refers to fflti.o(.text) for __aeabi_i2f
    attitude.o(i._ZN19AttitudeCalculation8GetAngleE7Vector3IiES0_IfES1_f) refers to attitude.o(i._ZN19AttitudeCalculation22NonlinearSO3AHRSupdateEffffffffffff) for AttitudeCalculation::NonlinearSO3AHRSupdate(float, float, float, float, float, float, float, float, float, float, float, float)
    attitude.o(i._ZN19AttitudeCalculation8GetAngleE7Vector3IiES0_IfES1_f) refers to fmul.o(.text) for __aeabi_fmul
    attitude.o(i._ZN19AttitudeCalculation8GetAngleE7Vector3IiES0_IfES1_f) refers to fadd.o(.text) for __aeabi_fadd
    attitude.o(i._ZN19AttitudeCalculation8GetAngleE7Vector3IiES0_IfES1_f) refers to attitude.o(i._ZSt4asinf) for std::asin(float)
    attitude.o(i._ZN19AttitudeCalculation8GetAngleE7Vector3IiES0_IfES1_f) refers to attitude.o(i._ZSt5atan2ff) for std::atan2(float, float)
    attitude.o(i._ZN19AttitudeCalculation8GetAngleE7Vector3IiES0_IfEf) refers to fflti.o(.text) for __aeabi_i2f
    attitude.o(i._ZN19AttitudeCalculation8GetAngleE7Vector3IiES0_IfEf) refers to attitude.o(i._ZN19AttitudeCalculation22NonlinearSO3AHRSupdateEffffffffffff) for AttitudeCalculation::NonlinearSO3AHRSupdate(float, float, float, float, float, float, float, float, float, float, float, float)
    attitude.o(i._ZN19AttitudeCalculation8GetAngleE7Vector3IiES0_IfEf) refers to fmul.o(.text) for __aeabi_fmul
    attitude.o(i._ZN19AttitudeCalculation8GetAngleE7Vector3IiES0_IfEf) refers to fadd.o(.text) for __aeabi_fadd
    attitude.o(i._ZN19AttitudeCalculation8GetAngleE7Vector3IiES0_IfEf) refers to attitude.o(i._ZSt4asinf) for std::asin(float)
    attitude.o(i._ZN19AttitudeCalculation8GetAngleE7Vector3IiES0_IfEf) refers to attitude.o(i._ZSt5atan2ff) for std::atan2(float, float)
    attitude.o(.ARM.exidx) refers to attitude.o(i._ZN19AttitudeCalculation20NonlinearSO3AHRSinitEffffff) for i._ZN19AttitudeCalculation20NonlinearSO3AHRSinitEffffff
    attitude.o(.ARM.exidx) refers to attitude.o(i._ZN19AttitudeCalculation22NonlinearSO3AHRSupdateEffffffffffff) for i._ZN19AttitudeCalculation22NonlinearSO3AHRSupdateEffffffffffff
    attitude.o(.ARM.exidx) refers to attitude.o(i._ZN19AttitudeCalculation8GetAngleE7Vector3IiES0_IfEf) for i._ZN19AttitudeCalculation8GetAngleE7Vector3IiES0_IfEf
    attitude.o(.ARM.exidx) refers to attitude.o(i._ZN19AttitudeCalculation8GetAngleE7Vector3IiES0_IfES1_f) for i._ZN19AttitudeCalculation8GetAngleE7Vector3IiES0_IfES1_f
    imu.o(i._ZN3IMU10IMU_FilterEv) refers to mpu6050.o(i._ZN7mpu60509GetAccRawEv) for mpu6050::GetAccRaw()
    imu.o(i._ZN3IMU10IMU_FilterEv) refers to imu.o(.bss) for s_resulttmpx
    imu.o(i._ZN3IMU10IMU_FilterEv) refers to imu.o(.data) for s_bufferCounterx
    imu.o(i._ZN3IMU13GyroCalibrateEv) refers to mpu6050.o(i._ZN7mpu605018StartGyroCalibrateEv) for mpu6050::StartGyroCalibrate()
    imu.o(i._ZN3IMU4initEffffff) refers to taskmanager.o(i._ZN11TaskManager4TimeEv) for TaskManager::Time()
    imu.o(i._ZN3IMU4initEffffff) refers to d2f.o(.text) for __aeabi_d2f
    imu.o(i._ZN3IMU4initEffffff) refers to mpu6050.o(i._ZN7mpu60504InitEb) for mpu6050::Init(bool)
    imu.o(i._ZN3IMU4initEffffff) refers to f2d.o(.text) for __aeabi_f2d
    imu.o(i._ZN3IMU4initEffffff) refers to dadd.o(.text) for __aeabi_dsub
    imu.o(i._ZN3IMU4initEffffff) refers to cdcmple.o(.text) for __aeabi_cdcmple
    imu.o(i._ZN3IMU4initEffffff) refers to mpu6050.o(i._ZN7mpu605018StartGyroCalibrateEv) for mpu6050::StartGyroCalibrate()
    imu.o(i._ZN3IMU4initEffffff) refers to usart.o(i._ZN5USARTlsEPKc) for USART::operator <<(const char*)
    imu.o(i._ZN3IMU4initEffffff) refers to main.o(.bss) for usart1
    imu.o(i._ZN3IMU4initEv) refers to taskmanager.o(i._ZN11TaskManager4TimeEv) for TaskManager::Time()
    imu.o(i._ZN3IMU4initEv) refers to d2f.o(.text) for __aeabi_d2f
    imu.o(i._ZN3IMU4initEv) refers to mpu6050.o(i._ZN7mpu60504InitEb) for mpu6050::Init(bool)
    imu.o(i._ZN3IMU4initEv) refers to f2d.o(.text) for __aeabi_f2d
    imu.o(i._ZN3IMU4initEv) refers to dadd.o(.text) for __aeabi_dsub
    imu.o(i._ZN3IMU4initEv) refers to cdcmple.o(.text) for __aeabi_cdcmple
    imu.o(i._ZN3IMU4initEv) refers to usart.o(i._ZN5USARTlsEPKc) for USART::operator <<(const char*)
    imu.o(i._ZN3IMU4initEv) refers to main.o(.bss) for usart1
    imu.o(i._ZN3IMU9UpdateIMUEv) refers to mpu6050.o(i._ZN7mpu60506UpdateEbP7Vector3IiES2_) for mpu6050::Update(bool, Vector3<int>*, Vector3<int>*)
    imu.o(i._ZN3IMU9UpdateIMUEv) refers to usart.o(i._ZN5USARTlsEPKc) for USART::operator <<(const char*)
    imu.o(i._ZN3IMU9UpdateIMUEv) refers to mpu6050.o(i._ZN7mpu605017IsGyroCalibratingEv) for mpu6050::IsGyroCalibrating()
    imu.o(i._ZN3IMU9UpdateIMUEv) refers to imu.o(i._ZN3IMU10IMU_FilterEv) for IMU::IMU_Filter()
    imu.o(i._ZN3IMU9UpdateIMUEv) refers to mpu6050.o(i._ZN7mpu605017GetUpdateIntervalEv) for mpu6050::GetUpdateInterval()
    imu.o(i._ZN3IMU9UpdateIMUEv) refers to d2f.o(.text) for __aeabi_d2f
    imu.o(i._ZN3IMU9UpdateIMUEv) refers to mpu6050.o(i._ZN7mpu60506GetGyrEv) for mpu6050::GetGyr()
    imu.o(i._ZN3IMU9UpdateIMUEv) refers to attitude.o(i._ZN19AttitudeCalculation8GetAngleE7Vector3IiES0_IfEf) for AttitudeCalculation::GetAngle(Vector3<int>, Vector3<float>, float)
    imu.o(i._ZN3IMU9UpdateIMUEv) refers to main.o(.bss) for usart1
    imu.o(i._ZN3IMUC1ER7mpu6050) refers to mpu6050.o(t._ZN7Vector3IfEC1Ev) for Vector3<float>::Vector3()
    imu.o(.ARM.exidx) refers to imu.o(i._ZN3IMU10IMU_FilterEv) for i._ZN3IMU10IMU_FilterEv
    imu.o(.ARM.exidx) refers to imu.o(i._ZN3IMUC1ER7mpu6050) for i._ZN3IMUC1ER7mpu6050
    imu.o(.ARM.exidx) refers to imu.o(i._ZN3IMU13GyroCalibrateEv) for i._ZN3IMU13GyroCalibrateEv
    imu.o(.ARM.exidx) refers to imu.o(i._ZN3IMU12MagCalibrateEd) for i._ZN3IMU12MagCalibrateEd
    imu.o(.ARM.exidx) refers to imu.o(i._ZN3IMU4initEv) for i._ZN3IMU4initEv
    imu.o(.ARM.exidx) refers to imu.o(i._ZN3IMU4initEffffff) for i._ZN3IMU4initEffffff
    imu.o(.ARM.exidx) refers to imu.o(i._ZN3IMU9UpdateIMUEv) for i._ZN3IMU9UpdateIMUEv
    imu.o(.ARM.exidx) refers to imu.o(i._ZN3IMU16GyroIsCalibratedEv) for i._ZN3IMU16GyroIsCalibratedEv
    imu.o(.ARM.exidx) refers to imu.o(i._ZN3IMU15MagIsCalibratedEv) for i._ZN3IMU15MagIsCalibratedEv
    main.o(i._Z17RCC_Configurationv) refers to stm32f10x_rcc.o(i.RCC_DeInit) for RCC_DeInit
    main.o(i._Z17RCC_Configurationv) refers to stm32f10x_rcc.o(i.RCC_HSEConfig) for RCC_HSEConfig
    main.o(i._Z17RCC_Configurationv) refers to stm32f10x_rcc.o(i.RCC_WaitForHSEStartUp) for RCC_WaitForHSEStartUp
    main.o(i._Z17RCC_Configurationv) refers to stm32f10x_rcc.o(i.RCC_HCLKConfig) for RCC_HCLKConfig
    main.o(i._Z17RCC_Configurationv) refers to stm32f10x_rcc.o(i.RCC_PCLK2Config) for RCC_PCLK2Config
    main.o(i._Z17RCC_Configurationv) refers to stm32f10x_rcc.o(i.RCC_PCLK1Config) for RCC_PCLK1Config
    main.o(i._Z17RCC_Configurationv) refers to stm32f10x_rcc.o(i.RCC_PLLConfig) for RCC_PLLConfig
    main.o(i._Z17RCC_Configurationv) refers to stm32f10x_rcc.o(i.RCC_PLLCmd) for RCC_PLLCmd
    main.o(i._Z17RCC_Configurationv) refers to stm32f10x_rcc.o(i.RCC_GetFlagStatus) for RCC_GetFlagStatus
    main.o(i._Z17RCC_Configurationv) refers to stm32f10x_rcc.o(i.RCC_SYSCLKConfig) for RCC_SYSCLKConfig
    main.o(i._Z17RCC_Configurationv) refers to stm32f10x_rcc.o(i.RCC_GetSYSCLKSource) for RCC_GetSYSCLKSource
    main.o(i._Z17RCC_Configurationv) refers to stm32f10x_rcc.o(i.RCC_APB2PeriphClockCmd) for RCC_APB2PeriphClockCmd
    main.o(i.__sti___8_main_cpp_iic) refers to i2c.o(i._ZN3I2CC1Ehbjhhhhhhhh) for I2C::I2C(unsigned char, bool, unsigned, unsigned char, unsigned char, unsigned char, unsigned char, unsigned char, unsigned char, unsigned char, unsigned char)
    main.o(i.__sti___8_main_cpp_iic) refers to mpu6050.o(i._ZN7mpu6050C1ER3I2Ct) for mpu6050::mpu6050(I2C&, unsigned short)
    main.o(i.__sti___8_main_cpp_iic) refers to aeabi_atexit.o(.text) for __aeabi_atexit
    main.o(i.__sti___8_main_cpp_iic) refers to imu.o(i._ZN3IMUC1ER7mpu6050) for IMU::IMU(mpu6050&)
    main.o(i.__sti___8_main_cpp_iic) refers to usart.o(i._ZN5USARTC1Ehjbhhhhhttt) for USART::USART(unsigned char, unsigned, bool, unsigned char, unsigned char, unsigned char, unsigned char, unsigned char, unsigned short, unsigned short, unsigned short)
    main.o(i.__sti___8_main_cpp_iic) refers to spi.o(i._ZN3SPIC1EP11SPI_TypeDefbhhhhh) for SPI::SPI(SPI_TypeDef*, bool, unsigned char, unsigned char, unsigned char, unsigned char, unsigned char)
    main.o(i.__sti___8_main_cpp_iic) refers to nrf24l01.o(i._ZN8NRF24L01C1ER3SPI) for NRF24L01::NRF24L01(SPI&)
    main.o(i.__sti___8_main_cpp_iic) refers to communication.o(i._ZN13CommunicationC1ER8NRF24L01) for Communication::Communication(NRF24L01&)
    main.o(i.__sti___8_main_cpp_iic) refers to f103_pwm.o(i._ZN3PWMC1EP11TIM_TypeDefbbbbth) for PWM::PWM(TIM_TypeDef*, bool, bool, bool, bool, unsigned short, unsigned char)
    main.o(i.__sti___8_main_cpp_iic) refers to control.o(i._ZN7ControlC1ER3PWMS1_) for Control::Control(PWM&, PWM&)
    main.o(i.__sti___8_main_cpp_iic) refers to gpio.o(i._ZN4GPIOC1EP12GPIO_TypeDeft16GPIOMode_TypeDef17GPIOSpeed_TypeDef) for GPIO::GPIO(GPIO_TypeDef*, unsigned short, GPIOMode_TypeDef, GPIOSpeed_TypeDef)
    main.o(i.__sti___8_main_cpp_iic) refers to led.o(i._ZN3LEDC1ER4GPIOb) for LED::LED(GPIO&, bool)
    main.o(i.__sti___8_main_cpp_iic) refers to flash.o(i._ZN5flashC1Ejb) for flash::flash(unsigned, bool)
    main.o(i.__sti___8_main_cpp_iic) refers to main.o(.bss) for iic
    main.o(i.__sti___8_main_cpp_iic) refers to mpu6050.o(i._ZN7mpu6050D1Ev) for mpu6050::~mpu6050()
    main.o(i.__sti___8_main_cpp_iic) refers to usart.o(i._ZN5USARTD1Ev) for USART::~USART()
    main.o(i.__sti___8_main_cpp_iic) refers to spi.o(i._ZN3SPID1Ev) for SPI::~SPI()
    main.o(i.__sti___8_main_cpp_iic) refers to main.o(.data) for Red
    main.o(i.main) refers to main.o(i._Z17RCC_Configurationv) for RCC_Configuration()
    main.o(i.main) refers to taskmanager.o(i._ZN11TaskManager6DelaySEt) for TaskManager::DelayS(unsigned short)
    main.o(i.main) refers to led.o(i._ZN3LED2OnEv) for LED::On()
    main.o(i.main) refers to imu.o(i._ZN3IMU4initEv) for IMU::init()
    main.o(i.main) refers to nrf24l01.o(i._ZN8NRF24L0111NRF_RX_ModeEv) for NRF24L01::NRF_RX_Mode()
    main.o(i.main) refers to nrf24l01.o(i._ZN8NRF24L019NRF_CheckEv) for NRF24L01::NRF_Check()
    main.o(i.main) refers to usart.o(i._ZN5USARTlsEPKc) for USART::operator <<(const char*)
    main.o(i.main) refers to mpu6050.o(i._ZN7mpu60504InitEb) for mpu6050::Init(bool)
    main.o(i.main) refers to f103_pwm.o(i._ZN3PWM7SetDutyEhf) for PWM::SetDuty(unsigned char, float)
    main.o(i.main) refers to taskmanager.o(i._ZN11TaskManager7DelayMsEt) for TaskManager::DelayMs(unsigned short)
    main.o(i.main) refers to taskmanager.o(i._ZN11TaskManager9TimeSliceERdd) for TaskManager::TimeSlice(double&, double)
    main.o(i.main) refers to imu.o(i._ZN3IMU9UpdateIMUEv) for IMU::UpdateIMU()
    main.o(i.main) refers to mpu6050.o(i._ZN7mpu605012GetGyrDegreeEv) for mpu6050::GetGyrDegree()
    main.o(i.main) refers to control.o(i._ZN7Control12CtrlAttiRateE7Vector3IfES1_tttt) for Control::CtrlAttiRate(Vector3<float>, Vector3<float>, unsigned short, unsigned short, unsigned short, unsigned short)
    main.o(i.main) refers to f2d.o(.text) for __aeabi_f2d
    main.o(i.main) refers to usart.o(i._ZN5USARTlsEd) for USART::operator <<(double)
    main.o(i.main) refers to usart.o(i._ZN5USARTlsEi) for USART::operator <<(int)
    main.o(i.main) refers to imu.o(i._ZN3IMU13GyroCalibrateEv) for IMU::GyroCalibrate()
    main.o(i.main) refers to communication.o(i._ZN13Communication13DataListeningEv) for Communication::DataListening()
    main.o(i.main) refers to gpio.o(i._ZN4GPIO8SetLevelEh) for GPIO::SetLevel(unsigned char)
    main.o(i.main) refers to imu.o(i._ZN3IMU16GyroIsCalibratedEv) for IMU::GyroIsCalibrated()
    main.o(i.main) refers to main.o(.data) for Red
    main.o(i.main) refers to main.o(.bss) for imu
    main.o(.ARM.exidx) refers to main.o(i._Z17RCC_Configurationv) for i._Z17RCC_Configurationv
    main.o(.ARM.exidx) refers to main.o(i.main) for i.main
    main.o(.ARM.exidx) refers to main.o(i.__sti___8_main_cpp_iic) for i.__sti___8_main_cpp_iic
    main.o(.init_array) refers to main.o(i.__sti___8_main_cpp_iic) for __sti___8_main_cpp_iic
    main.o(.init_array) refers to cpp_init.o(.text) for __cpp_initialize__aeabi_
    control.o(.rev16_text) refers (Special) to dadd.o(.text) for __aeabi_dsub
    control.o(.revsh_text) refers (Special) to dadd.o(.text) for __aeabi_dsub
    control.o(.rrx_text) refers (Special) to dadd.o(.text) for __aeabi_dsub
    control.o(i._ZN7Control11TestControlE7Vector3IfES1_tttt) refers (Special) to dadd.o(.text) for __aeabi_dsub
    control.o(i._ZN7Control11TestControlE7Vector3IfES1_tttt) refers to fflti.o(.text) for __aeabi_i2f
    control.o(i._ZN7Control11TestControlE7Vector3IfES1_tttt) refers to dflti.o(.text) for __aeabi_i2d
    control.o(i._ZN7Control11TestControlE7Vector3IfES1_tttt) refers to dmul.o(.text) for __aeabi_dmul
    control.o(i._ZN7Control11TestControlE7Vector3IfES1_tttt) refers to d2f.o(.text) for __aeabi_d2f
    control.o(i._ZN7Control11TestControlE7Vector3IfES1_tttt) refers to cdcmple.o(.text) for __aeabi_cdcmpeq
    control.o(i._ZN7Control11TestControlE7Vector3IfES1_tttt) refers to taskmanager.o(i._ZN11TaskManager4TimeEv) for TaskManager::Time()
    control.o(i._ZN7Control11TestControlE7Vector3IfES1_tttt) refers to fadd.o(.text) for __aeabi_fsub
    control.o(i._ZN7Control11TestControlE7Vector3IfES1_tttt) refers to control.o(i._ZSt4fabsf) for std::fabs(float)
    control.o(i._ZN7Control11TestControlE7Vector3IfES1_tttt) refers to cfrcmple.o(.text) for __aeabi_cfrcmple
    control.o(i._ZN7Control11TestControlE7Vector3IfES1_tttt) refers to moto_pwm.o(i._Z13MotorPwmFlashssss) for MotorPwmFlash(short, short, short, short)
    control.o(i._ZN7Control11TestControlE7Vector3IfES1_tttt) refers to cfcmple.o(.text) for __aeabi_cfcmple
    control.o(i._ZN7Control11TestControlE7Vector3IfES1_tttt) refers to fmul.o(.text) for __aeabi_fmul
    control.o(i._ZN7Control11TestControlE7Vector3IfES1_tttt) refers to f2d.o(.text) for __aeabi_f2d
    control.o(i._ZN7Control11TestControlE7Vector3IfES1_tttt) refers to usart.o(i._ZN5USARTlsEPKc) for USART::operator <<(const char*)
    control.o(i._ZN7Control11TestControlE7Vector3IfES1_tttt) refers to usart.o(i._ZN5USARTlsEd) for USART::operator <<(double)
    control.o(i._ZN7Control11TestControlE7Vector3IfES1_tttt) refers to ffixi.o(.text) for __aeabi_f2iz
    control.o(i._ZN7Control11TestControlE7Vector3IfES1_tttt) refers to control.o(.data) for g_PID_Kd
    control.o(i._ZN7Control11TestControlE7Vector3IfES1_tttt) refers to main.o(.bss) for usart1
    control.o(i._ZN7Control12ControlMotorEt) refers (Special) to dadd.o(.text) for __aeabi_dsub
    control.o(i._ZN7Control12ControlMotorEt) refers to fflti.o(.text) for __aeabi_i2f
    control.o(i._ZN7Control12ControlMotorEt) refers to fadd.o(.text) for __aeabi_fadd
    control.o(i._ZN7Control12ControlMotorEt) refers to cfrcmple.o(.text) for __aeabi_cfrcmple
    control.o(i._ZN7Control12ControlMotorEt) refers to f103_pwm.o(i._ZN3PWM7SetDutyEffff) for PWM::SetDuty(float, float, float, float)
    control.o(i._ZN7Control12ControlMotorEt) refers to f103_pwm.o(i._ZN3PWM7SetDutyEhf) for PWM::SetDuty(unsigned char, float)
    control.o(i._ZN7Control12CtrlAttiRateE7Vector3IfES1_tttt) refers (Special) to dadd.o(.text) for __aeabi_dsub
    control.o(i._ZN7Control12CtrlAttiRateE7Vector3IfES1_tttt) refers to fflti.o(.text) for __aeabi_i2f
    control.o(i._ZN7Control12CtrlAttiRateE7Vector3IfES1_tttt) refers to dflti.o(.text) for __aeabi_i2d
    control.o(i._ZN7Control12CtrlAttiRateE7Vector3IfES1_tttt) refers to dmul.o(.text) for __aeabi_dmul
    control.o(i._ZN7Control12CtrlAttiRateE7Vector3IfES1_tttt) refers to d2f.o(.text) for __aeabi_d2f
    control.o(i._ZN7Control12CtrlAttiRateE7Vector3IfES1_tttt) refers to cdcmple.o(.text) for __aeabi_cdcmpeq
    control.o(i._ZN7Control12CtrlAttiRateE7Vector3IfES1_tttt) refers to taskmanager.o(i._ZN11TaskManager4TimeEv) for TaskManager::Time()
    control.o(i._ZN7Control12CtrlAttiRateE7Vector3IfES1_tttt) refers to fadd.o(.text) for __aeabi_fsub
    control.o(i._ZN7Control12CtrlAttiRateE7Vector3IfES1_tttt) refers to fmul.o(.text) for __aeabi_fmul
    control.o(i._ZN7Control12CtrlAttiRateE7Vector3IfES1_tttt) refers to cfrcmple.o(.text) for __aeabi_cfrcmple
    control.o(i._ZN7Control12CtrlAttiRateE7Vector3IfES1_tttt) refers to f2d.o(.text) for __aeabi_f2d
    control.o(i._ZN7Control12CtrlAttiRateE7Vector3IfES1_tttt) refers to ddiv.o(.text) for __aeabi_ddiv
    control.o(i._ZN7Control12CtrlAttiRateE7Vector3IfES1_tttt) refers to control.o(i._ZSt4fabsf) for std::fabs(float)
    control.o(i._ZN7Control12CtrlAttiRateE7Vector3IfES1_tttt) refers to f103_pwm.o(i._ZN3PWM7SetDutyEffff) for PWM::SetDuty(float, float, float, float)
    control.o(i._ZN7Control12CtrlAttiRateE7Vector3IfES1_tttt) refers to f103_pwm.o(i._ZN3PWM7SetDutyEhf) for PWM::SetDuty(unsigned char, float)
    control.o(i._ZN7Control12CtrlAttiRateE7Vector3IfES1_tttt) refers to cfcmple.o(.text) for __aeabi_cfcmple
    control.o(i._ZN7Control12ServoControlE7Vector3IfES1_tttt) refers (Special) to dadd.o(.text) for __aeabi_dsub
    control.o(i._ZN7Control12ServoControlE7Vector3IfES1_tttt) refers to fflti.o(.text) for __aeabi_i2f
    control.o(i._ZN7Control12ServoControlE7Vector3IfES1_tttt) refers to dflti.o(.text) for __aeabi_i2d
    control.o(i._ZN7Control12ServoControlE7Vector3IfES1_tttt) refers to dmul.o(.text) for __aeabi_dmul
    control.o(i._ZN7Control12ServoControlE7Vector3IfES1_tttt) refers to d2f.o(.text) for __aeabi_d2f
    control.o(i._ZN7Control12ServoControlE7Vector3IfES1_tttt) refers to cdcmple.o(.text) for __aeabi_cdcmpeq
    control.o(i._ZN7Control12ServoControlE7Vector3IfES1_tttt) refers to taskmanager.o(i._ZN11TaskManager4TimeEv) for TaskManager::Time()
    control.o(i._ZN7Control12ServoControlE7Vector3IfES1_tttt) refers to control.o(i._ZN7Control20TOOL_PID_Postion_CalEP11PID_Typedeffffd) for Control::TOOL_PID_Postion_Cal(PID_Typedef*, float, float, float, double)
    control.o(i._ZN7Control12ServoControlE7Vector3IfES1_tttt) refers to fadd.o(.text) for __aeabi_fadd
    control.o(i._ZN7Control12ServoControlE7Vector3IfES1_tttt) refers to cfrcmple.o(.text) for __aeabi_cfrcmple
    control.o(i._ZN7Control12ServoControlE7Vector3IfES1_tttt) refers to f103_pwm.o(i._ZN3PWM7SetDutyEffff) for PWM::SetDuty(float, float, float, float)
    control.o(i._ZN7Control12ServoControlE7Vector3IfES1_tttt) refers to f103_pwm.o(i._ZN3PWM7SetDutyEhf) for PWM::SetDuty(unsigned char, float)
    control.o(i._ZN7Control16SeriesPIDControlE7Vector3IfES1_tttt) refers (Special) to dadd.o(.text) for __aeabi_dsub
    control.o(i._ZN7Control16SeriesPIDControlE7Vector3IfES1_tttt) refers to fflti.o(.text) for __aeabi_i2f
    control.o(i._ZN7Control16SeriesPIDControlE7Vector3IfES1_tttt) refers to dflti.o(.text) for __aeabi_i2d
    control.o(i._ZN7Control16SeriesPIDControlE7Vector3IfES1_tttt) refers to dmul.o(.text) for __aeabi_dmul
    control.o(i._ZN7Control16SeriesPIDControlE7Vector3IfES1_tttt) refers to d2f.o(.text) for __aeabi_d2f
    control.o(i._ZN7Control16SeriesPIDControlE7Vector3IfES1_tttt) refers to cdcmple.o(.text) for __aeabi_cdcmpeq
    control.o(i._ZN7Control16SeriesPIDControlE7Vector3IfES1_tttt) refers to taskmanager.o(i._ZN11TaskManager4TimeEv) for TaskManager::Time()
    control.o(i._ZN7Control16SeriesPIDControlE7Vector3IfES1_tttt) refers to control.o(i._ZN7Control20TOOL_PID_Postion_CalEP11PID_Typedeffffd) for Control::TOOL_PID_Postion_Cal(PID_Typedef*, float, float, float, double)
    control.o(i._ZN7Control16SeriesPIDControlE7Vector3IfES1_tttt) refers to fadd.o(.text) for __aeabi_fadd
    control.o(i._ZN7Control16SeriesPIDControlE7Vector3IfES1_tttt) refers to cfrcmple.o(.text) for __aeabi_cfrcmple
    control.o(i._ZN7Control16SeriesPIDControlE7Vector3IfES1_tttt) refers to f103_pwm.o(i._ZN3PWM7SetDutyEffff) for PWM::SetDuty(float, float, float, float)
    control.o(i._ZN7Control16SeriesPIDControlE7Vector3IfES1_tttt) refers to f103_pwm.o(i._ZN3PWM7SetDutyEhf) for PWM::SetDuty(unsigned char, float)
    control.o(i._ZN7Control20TOOL_PID_Postion_CalEP11PID_Typedeffffd) refers (Special) to dadd.o(.text) for __aeabi_dsub
    control.o(i._ZN7Control20TOOL_PID_Postion_CalEP11PID_Typedeffffd) refers to fadd.o(.text) for __aeabi_fsub
    control.o(i._ZN7Control20TOOL_PID_Postion_CalEP11PID_Typedeffffd) refers to f2d.o(.text) for __aeabi_f2d
    control.o(i._ZN7Control20TOOL_PID_Postion_CalEP11PID_Typedeffffd) refers to ddiv.o(.text) for __aeabi_ddiv
    control.o(i._ZN7Control20TOOL_PID_Postion_CalEP11PID_Typedeffffd) refers to d2f.o(.text) for __aeabi_d2f
    control.o(i._ZN7Control20TOOL_PID_Postion_CalEP11PID_Typedeffffd) refers to fmul.o(.text) for __aeabi_fmul
    control.o(i._ZN7Control20TOOL_PID_Postion_CalEP11PID_Typedeffffd) refers to control.o(i._ZSt4fabsf) for std::fabs(float)
    control.o(i._ZN7Control20TOOL_PID_Postion_CalEP11PID_Typedeffffd) refers to cfcmple.o(.text) for __aeabi_cfcmple
    control.o(i._ZN7Control20TOOL_PID_Postion_CalEP11PID_Typedeffffd) refers to dmul.o(.text) for __aeabi_dmul
    control.o(i._ZN7Control20TOOL_PID_Postion_CalEP11PID_Typedeffffd) refers to main.o(.bss) for mCommunication
    control.o(i._ZN7Control7ReadPIDE5flashtt) refers (Special) to dadd.o(.text) for __aeabi_dsub
    control.o(i._ZN7Control7ReadPIDE5flashtt) refers to flash.o(i._ZN5flash4ReadEttPtt) for flash::Read(unsigned short, unsigned short, unsigned short*, unsigned short)
    control.o(i._ZN7Control7ReadPIDE5flashtt) refers to dfltui.o(.text) for __aeabi_ui2d
    control.o(i._ZN7Control7ReadPIDE5flashtt) refers to ddiv.o(.text) for __aeabi_ddiv
    control.o(i._ZN7Control7ReadPIDE5flashtt) refers to d2f.o(.text) for __aeabi_d2f
    control.o(i._ZN7Control7SavePIDE5flashtt) refers (Special) to dadd.o(.text) for __aeabi_dsub
    control.o(i._ZN7Control7SavePIDE5flashtt) refers to fmul.o(.text) for __aeabi_fmul
    control.o(i._ZN7Control7SavePIDE5flashtt) refers to ffixui.o(.text) for __aeabi_f2uiz
    control.o(i._ZN7Control7SavePIDE5flashtt) refers to flash.o(i._ZN5flash5ClearEt) for flash::Clear(unsigned short)
    control.o(i._ZN7Control7SavePIDE5flashtt) refers to flash.o(i._ZN5flash5WriteEttPtt) for flash::Write(unsigned short, unsigned short, unsigned short*, unsigned short)
    control.o(i._ZN7ControlC1ER3PWMS1_) refers (Special) to dadd.o(.text) for __aeabi_dsub
    control.o(.ARM.exidx) refers (Special) to dadd.o(.text) for __aeabi_dsub
    control.o(.ARM.exidx) refers to control.o(i._ZN7Control20TOOL_PID_Postion_CalEP11PID_Typedeffffd) for i._ZN7Control20TOOL_PID_Postion_CalEP11PID_Typedeffffd
    control.o(.ARM.exidx) refers (Special) to dadd.o(.text) for __aeabi_dsub
    control.o(.ARM.exidx) refers to control.o(i._ZN7ControlC1ER3PWMS1_) for i._ZN7ControlC1ER3PWMS1_
    control.o(.ARM.exidx) refers (Special) to dadd.o(.text) for __aeabi_dsub
    control.o(.ARM.exidx) refers to control.o(i._ZN7Control7ReadPIDE5flashtt) for i._ZN7Control7ReadPIDE5flashtt
    control.o(.ARM.exidx) refers (Special) to dadd.o(.text) for __aeabi_dsub
    control.o(.ARM.exidx) refers to control.o(i._ZN7Control7SavePIDE5flashtt) for i._ZN7Control7SavePIDE5flashtt
    control.o(.ARM.exidx) refers (Special) to dadd.o(.text) for __aeabi_dsub
    control.o(.ARM.exidx) refers to control.o(i._ZN7Control12CtrlAttiRateE7Vector3IfES1_tttt) for i._ZN7Control12CtrlAttiRateE7Vector3IfES1_tttt
    control.o(.ARM.exidx) refers (Special) to dadd.o(.text) for __aeabi_dsub
    control.o(.ARM.exidx) refers to control.o(i._ZN7Control16SeriesPIDControlE7Vector3IfES1_tttt) for i._ZN7Control16SeriesPIDControlE7Vector3IfES1_tttt
    control.o(.ARM.exidx) refers (Special) to dadd.o(.text) for __aeabi_dsub
    control.o(.ARM.exidx) refers to control.o(i._ZN7Control12ServoControlE7Vector3IfES1_tttt) for i._ZN7Control12ServoControlE7Vector3IfES1_tttt
    control.o(.ARM.exidx) refers (Special) to dadd.o(.text) for __aeabi_dsub
    control.o(.ARM.exidx) refers to control.o(i._ZN7Control12ControlMotorEt) for i._ZN7Control12ControlMotorEt
    control.o(.ARM.exidx) refers (Special) to dadd.o(.text) for __aeabi_dsub
    control.o(.ARM.exidx) refers to control.o(i._ZN7Control11TestControlE7Vector3IfES1_tttt) for i._ZN7Control11TestControlE7Vector3IfES1_tttt
    control.o(.data) refers (Special) to dadd.o(.text) for __aeabi_dsub
    communication.o(i._ZN13Communication11SendMotoMsgEtttttttt) refers to nrf24l01.o(i._ZN8NRF24L018SendDataEPhj) for NRF24L01::SendData(unsigned char*, unsigned)
    communication.o(i._ZN13Communication13DataListeningEv) refers to memseta.o(.text) for __aeabi_memclr4
    communication.o(i._ZN13Communication13DataListeningEv) refers to nrf24l01.o(i._ZN8NRF24L0117ReceiveBufferSizeEv) for NRF24L01::ReceiveBufferSize()
    communication.o(i._ZN13Communication13DataListeningEv) refers to nrf24l01.o(i._ZN8NRF24L0115GetReceivedDataEPht) for NRF24L01::GetReceivedData(unsigned char*, unsigned short)
    communication.o(i._ZN13Communication13DataListeningEv) refers to communication.o(i._ZN13Communication11CalibrationEPhih) for Communication::Calibration(unsigned char*, int, unsigned char)
    communication.o(i._ZN13Communication13DataListeningEv) refers to nrf24l01.o(i._ZN8NRF24L0118ClearReceiveBufferEv) for NRF24L01::ClearReceiveBuffer()
    communication.o(i._ZN13Communication15SendCopterStateEfffihh) refers to fmul.o(.text) for __aeabi_fmul
    communication.o(i._ZN13Communication15SendCopterStateEfffihh) refers to ffixi.o(.text) for __aeabi_f2iz
    communication.o(i._ZN13Communication15SendCopterStateEfffihh) refers to nrf24l01.o(i._ZN8NRF24L018SendDataEPhj) for NRF24L01::SendData(unsigned char*, unsigned)
    communication.o(i._ZN13Communication22SendRcvControlQuantityEv) refers to nrf24l01.o(i._ZN8NRF24L018SendDataEPhj) for NRF24L01::SendData(unsigned char*, unsigned)
    communication.o(i._ZN13Communication22SendSensorOriginalDataE7Vector3IiES1_S1_) refers to nrf24l01.o(i._ZN8NRF24L018SendDataEPhj) for NRF24L01::SendData(unsigned char*, unsigned)
    communication.o(i._ZN13Communication4testEfffffffff) refers to fmul.o(.text) for __aeabi_fmul
    communication.o(i._ZN13Communication4testEfffffffff) refers to ffixi.o(.text) for __aeabi_f2iz
    communication.o(i._ZN13Communication4testEfffffffff) refers to nrf24l01.o(i._ZN8NRF24L018SendDataEPhj) for NRF24L01::SendData(unsigned char*, unsigned)
    communication.o(i._ZN13Communication5replyEhh) refers to nrf24l01.o(i._ZN8NRF24L0114NRF_SendPacketEPh) for NRF24L01::NRF_SendPacket(unsigned char*)
    communication.o(i._ZN13Communication7SendPIDEfffffffff) refers to fmul.o(.text) for __aeabi_fmul
    communication.o(i._ZN13Communication7SendPIDEfffffffff) refers to ffixi.o(.text) for __aeabi_f2iz
    communication.o(i._ZN13Communication7SendPIDEfffffffff) refers to nrf24l01.o(i._ZN8NRF24L018SendDataEPhj) for NRF24L01::SendData(unsigned char*, unsigned)
    communication.o(.ARM.exidx) refers to communication.o(i._ZN13Communication11CalibrationEPhih) for i._ZN13Communication11CalibrationEPhih
    communication.o(.ARM.exidx) refers to communication.o(i._ZN13CommunicationC1ER8NRF24L01) for i._ZN13CommunicationC1ER8NRF24L01
    communication.o(.ARM.exidx) refers to communication.o(i._ZN13Communication13DataListeningEv) for i._ZN13Communication13DataListeningEv
    communication.o(.ARM.exidx) refers to communication.o(i._ZN13Communication15SendCopterStateEfffihh) for i._ZN13Communication15SendCopterStateEfffihh
    communication.o(.ARM.exidx) refers to communication.o(i._ZN13Communication22SendSensorOriginalDataE7Vector3IiES1_S1_) for i._ZN13Communication22SendSensorOriginalDataE7Vector3IiES1_S1_
    communication.o(.ARM.exidx) refers to communication.o(i._ZN13Communication22SendRcvControlQuantityEv) for i._ZN13Communication22SendRcvControlQuantityEv
    communication.o(.ARM.exidx) refers to communication.o(i._ZN13Communication7SendPIDEfffffffff) for i._ZN13Communication7SendPIDEfffffffff
    communication.o(.ARM.exidx) refers to communication.o(i._ZN13Communication5replyEhh) for i._ZN13Communication5replyEhh
    communication.o(.ARM.exidx) refers to communication.o(i._ZN13Communication11SendMotoMsgEtttttttt) for i._ZN13Communication11SendMotoMsgEtttttttt
    communication.o(.ARM.exidx) refers to communication.o(i._ZN13Communication4testEfffffffff) for i._ZN13Communication4testEfffffffff
    crc.o(.ARM.exidx) refers to crc.o(i._Z14CRC16CalculatePKht) for i._Z14CRC16CalculatePKht
    moto_pwm.o(i._Z9MotorInitv) refers to stm32f10x_rcc.o(i.RCC_APB2PeriphClockCmd) for RCC_APB2PeriphClockCmd
    moto_pwm.o(i._Z9MotorInitv) refers to stm32f10x_rcc.o(i.RCC_APB1PeriphClockCmd) for RCC_APB1PeriphClockCmd
    moto_pwm.o(i._Z9MotorInitv) refers to stm32f10x_gpio.o(i.GPIO_PinRemapConfig) for GPIO_PinRemapConfig
    moto_pwm.o(i._Z9MotorInitv) refers to stm32f10x_gpio.o(i.GPIO_Init) for GPIO_Init
    moto_pwm.o(i._Z9MotorInitv) refers to stm32f10x_tim.o(i.TIM_DeInit) for TIM_DeInit
    moto_pwm.o(i._Z9MotorInitv) refers to stm32f10x_tim.o(i.TIM_TimeBaseInit) for TIM_TimeBaseInit
    moto_pwm.o(i._Z9MotorInitv) refers to stm32f10x_tim.o(i.TIM_PrescalerConfig) for TIM_PrescalerConfig
    moto_pwm.o(i._Z9MotorInitv) refers to stm32f10x_tim.o(i.TIM_OCStructInit) for TIM_OCStructInit
    moto_pwm.o(i._Z9MotorInitv) refers to stm32f10x_tim.o(i.TIM_OC1Init) for TIM_OC1Init
    moto_pwm.o(i._Z9MotorInitv) refers to stm32f10x_tim.o(i.TIM_OC2Init) for TIM_OC2Init
    moto_pwm.o(i._Z9MotorInitv) refers to stm32f10x_tim.o(i.TIM_OC3Init) for TIM_OC3Init
    moto_pwm.o(i._Z9MotorInitv) refers to stm32f10x_tim.o(i.TIM_OC4Init) for TIM_OC4Init
    moto_pwm.o(i._Z9MotorInitv) refers to stm32f10x_tim.o(i.TIM_OC1PreloadConfig) for TIM_OC1PreloadConfig
    moto_pwm.o(i._Z9MotorInitv) refers to stm32f10x_tim.o(i.TIM_OC2PreloadConfig) for TIM_OC2PreloadConfig
    moto_pwm.o(i._Z9MotorInitv) refers to stm32f10x_tim.o(i.TIM_OC3PreloadConfig) for TIM_OC3PreloadConfig
    moto_pwm.o(i._Z9MotorInitv) refers to stm32f10x_tim.o(i.TIM_OC4PreloadConfig) for TIM_OC4PreloadConfig
    moto_pwm.o(i._Z9MotorInitv) refers to stm32f10x_tim.o(i.TIM_Cmd) for TIM_Cmd
    moto_pwm.o(i._Z9MotorInitv) refers to system_stm32f10x.o(.data) for SystemCoreClock
    moto_pwm.o(.ARM.exidx) refers to moto_pwm.o(i._Z13MotorPwmFlashssss) for i._Z13MotorPwmFlashssss
    moto_pwm.o(.ARM.exidx) refers to moto_pwm.o(i._Z9MotorInitv) for i._Z9MotorInitv
    stm32f10x_flash.o(i.FLASH_EnableWriteProtection) refers to stm32f10x_flash.o(i.FLASH_WaitForLastOperation) for FLASH_WaitForLastOperation
    stm32f10x_flash.o(i.FLASH_EraseAllBank1Pages) refers to stm32f10x_flash.o(i.FLASH_WaitForLastBank1Operation) for FLASH_WaitForLastBank1Operation
    stm32f10x_flash.o(i.FLASH_EraseAllPages) refers to stm32f10x_flash.o(i.FLASH_WaitForLastOperation) for FLASH_WaitForLastOperation
    stm32f10x_flash.o(i.FLASH_EraseOptionBytes) refers to stm32f10x_flash.o(i.FLASH_GetReadOutProtectionStatus) for FLASH_GetReadOutProtectionStatus
    stm32f10x_flash.o(i.FLASH_EraseOptionBytes) refers to stm32f10x_flash.o(i.FLASH_WaitForLastOperation) for FLASH_WaitForLastOperation
    stm32f10x_flash.o(i.FLASH_ErasePage) refers to stm32f10x_flash.o(i.FLASH_WaitForLastOperation) for FLASH_WaitForLastOperation
    stm32f10x_flash.o(i.FLASH_ProgramHalfWord) refers to stm32f10x_flash.o(i.FLASH_WaitForLastOperation) for FLASH_WaitForLastOperation
    stm32f10x_flash.o(i.FLASH_ProgramOptionByteData) refers to stm32f10x_flash.o(i.FLASH_WaitForLastOperation) for FLASH_WaitForLastOperation
    stm32f10x_flash.o(i.FLASH_ProgramWord) refers to stm32f10x_flash.o(i.FLASH_WaitForLastOperation) for FLASH_WaitForLastOperation
    stm32f10x_flash.o(i.FLASH_ReadOutProtection) refers to stm32f10x_flash.o(i.FLASH_WaitForLastOperation) for FLASH_WaitForLastOperation
    stm32f10x_flash.o(i.FLASH_UserOptionByteConfig) refers to stm32f10x_flash.o(i.FLASH_WaitForLastOperation) for FLASH_WaitForLastOperation
    stm32f10x_flash.o(i.FLASH_WaitForLastBank1Operation) refers to stm32f10x_flash.o(i.FLASH_GetBank1Status) for FLASH_GetBank1Status
    stm32f10x_flash.o(i.FLASH_WaitForLastOperation) refers to stm32f10x_flash.o(i.FLASH_GetBank1Status) for FLASH_GetBank1Status
    stm32f10x_gpio.o(i.GPIO_AFIODeInit) refers to stm32f10x_rcc.o(i.RCC_APB2PeriphResetCmd) for RCC_APB2PeriphResetCmd
    stm32f10x_gpio.o(i.GPIO_DeInit) refers to stm32f10x_rcc.o(i.RCC_APB2PeriphResetCmd) for RCC_APB2PeriphResetCmd
    stm32f10x_i2c.o(i.I2C_DeInit) refers to stm32f10x_rcc.o(i.RCC_APB1PeriphResetCmd) for RCC_APB1PeriphResetCmd
    stm32f10x_i2c.o(i.I2C_Init) refers to stm32f10x_rcc.o(i.RCC_GetClocksFreq) for RCC_GetClocksFreq
    stm32f10x_rcc.o(i.RCC_GetClocksFreq) refers to stm32f10x_rcc.o(.data) for APBAHBPrescTable
    stm32f10x_rcc.o(i.RCC_WaitForHSEStartUp) refers to stm32f10x_rcc.o(i.RCC_GetFlagStatus) for RCC_GetFlagStatus
    stm32f10x_spi.o(i.I2S_Init) refers to stm32f10x_rcc.o(i.RCC_GetClocksFreq) for RCC_GetClocksFreq
    stm32f10x_spi.o(i.SPI_I2S_DeInit) refers to stm32f10x_rcc.o(i.RCC_APB2PeriphResetCmd) for RCC_APB2PeriphResetCmd
    stm32f10x_spi.o(i.SPI_I2S_DeInit) refers to stm32f10x_rcc.o(i.RCC_APB1PeriphResetCmd) for RCC_APB1PeriphResetCmd
    stm32f10x_tim.o(i.TIM_DeInit) refers to stm32f10x_rcc.o(i.RCC_APB2PeriphResetCmd) for RCC_APB2PeriphResetCmd
    stm32f10x_tim.o(i.TIM_DeInit) refers to stm32f10x_rcc.o(i.RCC_APB1PeriphResetCmd) for RCC_APB1PeriphResetCmd
    stm32f10x_tim.o(i.TIM_ETRClockMode1Config) refers to stm32f10x_tim.o(i.TIM_ETRConfig) for TIM_ETRConfig
    stm32f10x_tim.o(i.TIM_ETRClockMode2Config) refers to stm32f10x_tim.o(i.TIM_ETRConfig) for TIM_ETRConfig
    stm32f10x_tim.o(i.TIM_ICInit) refers to stm32f10x_tim.o(i.TI1_Config) for TI1_Config
    stm32f10x_tim.o(i.TIM_ICInit) refers to stm32f10x_tim.o(i.TIM_SetIC1Prescaler) for TIM_SetIC1Prescaler
    stm32f10x_tim.o(i.TIM_ICInit) refers to stm32f10x_tim.o(i.TI2_Config) for TI2_Config
    stm32f10x_tim.o(i.TIM_ICInit) refers to stm32f10x_tim.o(i.TIM_SetIC2Prescaler) for TIM_SetIC2Prescaler
    stm32f10x_tim.o(i.TIM_ICInit) refers to stm32f10x_tim.o(i.TI3_Config) for TI3_Config
    stm32f10x_tim.o(i.TIM_ICInit) refers to stm32f10x_tim.o(i.TIM_SetIC3Prescaler) for TIM_SetIC3Prescaler
    stm32f10x_tim.o(i.TIM_ICInit) refers to stm32f10x_tim.o(i.TI4_Config) for TI4_Config
    stm32f10x_tim.o(i.TIM_ICInit) refers to stm32f10x_tim.o(i.TIM_SetIC4Prescaler) for TIM_SetIC4Prescaler
    stm32f10x_tim.o(i.TIM_ITRxExternalClockConfig) refers to stm32f10x_tim.o(i.TIM_SelectInputTrigger) for TIM_SelectInputTrigger
    stm32f10x_tim.o(i.TIM_PWMIConfig) refers to stm32f10x_tim.o(i.TI1_Config) for TI1_Config
    stm32f10x_tim.o(i.TIM_PWMIConfig) refers to stm32f10x_tim.o(i.TIM_SetIC1Prescaler) for TIM_SetIC1Prescaler
    stm32f10x_tim.o(i.TIM_PWMIConfig) refers to stm32f10x_tim.o(i.TI2_Config) for TI2_Config
    stm32f10x_tim.o(i.TIM_PWMIConfig) refers to stm32f10x_tim.o(i.TIM_SetIC2Prescaler) for TIM_SetIC2Prescaler
    stm32f10x_tim.o(i.TIM_TIxExternalClockConfig) refers to stm32f10x_tim.o(i.TI2_Config) for TI2_Config
    stm32f10x_tim.o(i.TIM_TIxExternalClockConfig) refers to stm32f10x_tim.o(i.TI1_Config) for TI1_Config
    stm32f10x_tim.o(i.TIM_TIxExternalClockConfig) refers to stm32f10x_tim.o(i.TIM_SelectInputTrigger) for TIM_SelectInputTrigger
    stm32f10x_usart.o(i.USART_DeInit) refers to stm32f10x_rcc.o(i.RCC_APB2PeriphResetCmd) for RCC_APB2PeriphResetCmd
    stm32f10x_usart.o(i.USART_DeInit) refers to stm32f10x_rcc.o(i.RCC_APB1PeriphResetCmd) for RCC_APB1PeriphResetCmd
    stm32f10x_usart.o(i.USART_Init) refers to stm32f10x_rcc.o(i.RCC_GetClocksFreq) for RCC_GetClocksFreq
    startup_stm32f10x_md.o(RESET) refers to startup_stm32f10x_md.o(STACK) for __initial_sp
    startup_stm32f10x_md.o(RESET) refers to startup_stm32f10x_md.o(.text) for Reset_Handler
    startup_stm32f10x_md.o(RESET) refers to taskmanager.o(i.SysTick_Handler) for SysTick_Handler
    startup_stm32f10x_md.o(RESET) refers to interrupt.o(i.EXTI2_IRQHandler) for EXTI2_IRQHandler
    startup_stm32f10x_md.o(RESET) refers to interrupt.o(i.DMA1_Channel2_IRQHandler) for DMA1_Channel2_IRQHandler
    startup_stm32f10x_md.o(RESET) refers to interrupt.o(i.DMA1_Channel4_IRQHandler) for DMA1_Channel4_IRQHandler
    startup_stm32f10x_md.o(RESET) refers to interrupt.o(i.DMA1_Channel5_IRQHandler) for DMA1_Channel5_IRQHandler
    startup_stm32f10x_md.o(RESET) refers to interrupt.o(i.DMA1_Channel6_IRQHandler) for DMA1_Channel6_IRQHandler
    startup_stm32f10x_md.o(RESET) refers to interrupt.o(i.DMA1_Channel7_IRQHandler) for DMA1_Channel7_IRQHandler
    startup_stm32f10x_md.o(RESET) refers to interrupt.o(i.I2C1_EV_IRQHandler) for I2C1_EV_IRQHandler
    startup_stm32f10x_md.o(RESET) refers to interrupt.o(i.I2C1_ER_IRQHandler) for I2C1_ER_IRQHandler
    startup_stm32f10x_md.o(RESET) refers to interrupt.o(i.I2C2_EV_IRQHandler) for I2C2_EV_IRQHandler
    startup_stm32f10x_md.o(RESET) refers to interrupt.o(i.I2C2_ER_IRQHandler) for I2C2_ER_IRQHandler
    startup_stm32f10x_md.o(RESET) refers to interrupt.o(i.SPI1_IRQHandler) for SPI1_IRQHandler
    startup_stm32f10x_md.o(RESET) refers to interrupt.o(i.SPI2_IRQHandler) for SPI2_IRQHandler
    startup_stm32f10x_md.o(RESET) refers to interrupt.o(i.USART1_IRQHandler) for USART1_IRQHandler
    startup_stm32f10x_md.o(RESET) refers to interrupt.o(i.USART2_IRQHandler) for USART2_IRQHandler
    startup_stm32f10x_md.o(RESET) refers to interrupt.o(i.USART3_IRQHandler) for USART3_IRQHandler
    startup_stm32f10x_md.o(.text) refers to system_stm32f10x.o(i.SystemInit) for SystemInit
    startup_stm32f10x_md.o(.text) refers to entry.o(.ARM.Collect$$$$00000000) for __main
    system_stm32f10x.o(i.SetSysClock) refers to system_stm32f10x.o(i.SetSysClockTo72) for SetSysClockTo72
    system_stm32f10x.o(i.SystemCoreClockUpdate) refers to system_stm32f10x.o(.data) for SystemCoreClock
    system_stm32f10x.o(i.SystemInit) refers to system_stm32f10x.o(i.SetSysClock) for SetSysClock
    cxa_guard_acquire.o(.ARM.exidx) refers to cxa_guard_acquire.o(i.__cxa_guard_acquire) for i.__cxa_guard_acquire
    cxa_guard_release.o(.ARM.exidx) refers to cxa_guard_release.o(i.__cxa_guard_release) for i.__cxa_guard_release
    asinf.o(i.__softfp_asinf) refers (Special) to iusefp.o(.text) for __I$use$fp
    asinf.o(i.__softfp_asinf) refers to asinf.o(i.asinf) for asinf
    asinf.o(i.asinf) refers (Special) to iusefp.o(.text) for __I$use$fp
    asinf.o(i.asinf) refers to fadd.o(.text) for __aeabi_frsub
    asinf.o(i.asinf) refers to fscalb.o(.text) for __ARM_scalbnf
    asinf.o(i.asinf) refers to sqrtf.o(i.sqrtf) for sqrtf
    asinf.o(i.asinf) refers to fmul.o(.text) for __aeabi_fmul
    asinf.o(i.asinf) refers to fpclassifyf.o(i.__ARM_fpclassifyf) for __ARM_fpclassifyf
    asinf.o(i.asinf) refers to funder.o(i.__mathlib_flt_underflow) for __mathlib_flt_underflow
    asinf.o(i.asinf) refers to funder.o(i.__mathlib_flt_infnan) for __mathlib_flt_infnan
    asinf.o(i.asinf) refers to errno.o(i.__set_errno) for __set_errno
    asinf.o(i.asinf) refers to funder.o(i.__mathlib_flt_invalid) for __mathlib_flt_invalid
    asinf_x.o(i.____softfp_asinf$lsc) refers (Special) to iusefp.o(.text) for __I$use$fp
    asinf_x.o(i.____softfp_asinf$lsc) refers to asinf_x.o(i.__asinf$lsc) for __asinf$lsc
    asinf_x.o(i.__asinf$lsc) refers (Special) to iusefp.o(.text) for __I$use$fp
    asinf_x.o(i.__asinf$lsc) refers to fadd.o(.text) for __aeabi_frsub
    asinf_x.o(i.__asinf$lsc) refers to fscalb.o(.text) for __ARM_scalbnf
    asinf_x.o(i.__asinf$lsc) refers to sqrtf.o(i.sqrtf) for sqrtf
    asinf_x.o(i.__asinf$lsc) refers to fmul.o(.text) for __aeabi_fmul
    asinf_x.o(i.__asinf$lsc) refers to funder.o(i.__mathlib_flt_infnan) for __mathlib_flt_infnan
    asinf_x.o(i.__asinf$lsc) refers to errno.o(i.__set_errno) for __set_errno
    atan2.o(i.__softfp_atan2) refers (Special) to iusefp.o(.text) for __I$use$fp
    atan2.o(i.__softfp_atan2) refers to atan2.o(i.atan2) for atan2
    atan2.o(i.atan2) refers (Special) to iusefp.o(.text) for __I$use$fp
    atan2.o(i.atan2) refers to dunder.o(i.__mathlib_dbl_infnan2) for __mathlib_dbl_infnan2
    atan2.o(i.atan2) refers to atan.o(i.atan) for atan
    atan2.o(i.atan2) refers to ddiv.o(.text) for __aeabi_ddiv
    atan2.o(i.atan2) refers to dadd.o(.text) for __aeabi_dsub
    atan2.o(i.atan2) refers to qnan.o(.constdata) for __mathlib_zero
    atan2_x.o(i.____softfp_atan2$lsc) refers (Special) to iusefp.o(.text) for __I$use$fp
    atan2_x.o(i.____softfp_atan2$lsc) refers to atan2_x.o(i.__atan2$lsc) for __atan2$lsc
    atan2_x.o(i.__atan2$lsc) refers (Special) to iusefp.o(.text) for __I$use$fp
    atan2_x.o(i.__atan2$lsc) refers to dunder.o(i.__mathlib_dbl_infnan2) for __mathlib_dbl_infnan2
    atan2_x.o(i.__atan2$lsc) refers to atan.o(i.atan) for atan
    atan2_x.o(i.__atan2$lsc) refers to errno.o(i.__set_errno) for __set_errno
    atan2_x.o(i.__atan2$lsc) refers to ddiv.o(.text) for __aeabi_ddiv
    atan2_x.o(i.__atan2$lsc) refers to dadd.o(.text) for __aeabi_dsub
    atan2_x.o(i.__atan2$lsc) refers to qnan.o(.constdata) for __mathlib_zero
    atan2f.o(i.__softfp_atan2f) refers (Special) to iusefp.o(.text) for __I$use$fp
    atan2f.o(i.__softfp_atan2f) refers to atan2f.o(i.atan2f) for atan2f
    atan2f.o(i.atan2f) refers (Special) to iusefp.o(.text) for __I$use$fp
    atan2f.o(i.atan2f) refers to fdiv.o(.text) for __aeabi_fdiv
    atan2f.o(i.atan2f) refers to fpclassifyf.o(i.__ARM_fpclassifyf) for __ARM_fpclassifyf
    atan2f.o(i.atan2f) refers to funder.o(i.__mathlib_flt_underflow) for __mathlib_flt_underflow
    atan2f.o(i.atan2f) refers to fadd.o(.text) for __aeabi_fsub
    atan2f.o(i.atan2f) refers to fmul.o(.text) for __aeabi_fmul
    atan2f.o(i.atan2f) refers to funder.o(i.__mathlib_flt_infnan2) for __mathlib_flt_infnan2
    atan2f_x.o(i.____softfp_atan2f$lsc) refers (Special) to iusefp.o(.text) for __I$use$fp
    atan2f_x.o(i.____softfp_atan2f$lsc) refers to atan2f_x.o(i.__atan2f$lsc) for __atan2f$lsc
    atan2f_x.o(i.__atan2f$lsc) refers (Special) to iusefp.o(.text) for __I$use$fp
    atan2f_x.o(i.__atan2f$lsc) refers to fdiv.o(.text) for __aeabi_fdiv
    atan2f_x.o(i.__atan2f$lsc) refers to fadd.o(.text) for __aeabi_fsub
    atan2f_x.o(i.__atan2f$lsc) refers to fmul.o(.text) for __aeabi_fmul
    atan2f_x.o(i.__atan2f$lsc) refers to funder.o(i.__mathlib_flt_infnan2) for __mathlib_flt_infnan2
    atan2f_x.o(i.__atan2f$lsc) refers to errno.o(i.__set_errno) for __set_errno
    cosf.o(i.__softfp_cosf) refers (Special) to iusefp.o(.text) for __I$use$fp
    cosf.o(i.__softfp_cosf) refers to cosf.o(i.cosf) for cosf
    cosf.o(i.cosf) refers (Special) to iusefp.o(.text) for __I$use$fp
    cosf.o(i.cosf) refers to fmul.o(.text) for __aeabi_fmul
    cosf.o(i.cosf) refers to frnd.o(.text) for _frnd
    cosf.o(i.cosf) refers to ffixi.o(.text) for __aeabi_f2iz
    cosf.o(i.cosf) refers to fadd.o(.text) for __aeabi_frsub
    cosf.o(i.cosf) refers to rredf.o(i.__mathlib_rredf2) for __mathlib_rredf2
    cosf.o(i.cosf) refers to errno.o(i.__set_errno) for __set_errno
    cosf.o(i.cosf) refers to funder.o(i.__mathlib_flt_invalid) for __mathlib_flt_invalid
    cosf.o(i.cosf) refers to funder.o(i.__mathlib_flt_infnan) for __mathlib_flt_infnan
    cosf_x.o(i.____softfp_cosf$lsc) refers (Special) to iusefp.o(.text) for __I$use$fp
    cosf_x.o(i.____softfp_cosf$lsc) refers to cosf_x.o(i.__cosf$lsc) for __cosf$lsc
    cosf_x.o(i.__cosf$lsc) refers (Special) to iusefp.o(.text) for __I$use$fp
    cosf_x.o(i.__cosf$lsc) refers to fmul.o(.text) for __aeabi_fmul
    cosf_x.o(i.__cosf$lsc) refers to frnd.o(.text) for _frnd
    cosf_x.o(i.__cosf$lsc) refers to ffixi.o(.text) for __aeabi_f2iz
    cosf_x.o(i.__cosf$lsc) refers to fadd.o(.text) for __aeabi_frsub
    cosf_x.o(i.__cosf$lsc) refers to rredf.o(i.__mathlib_rredf2) for __mathlib_rredf2
    cosf_x.o(i.__cosf$lsc) refers to errno.o(i.__set_errno) for __set_errno
    cosf_x.o(i.__cosf$lsc) refers to funder.o(i.__mathlib_flt_infnan) for __mathlib_flt_infnan
    sinf.o(i.__softfp_sinf) refers (Special) to iusefp.o(.text) for __I$use$fp
    sinf.o(i.__softfp_sinf) refers to sinf.o(i.sinf) for sinf
    sinf.o(i.sinf) refers (Special) to iusefp.o(.text) for __I$use$fp
    sinf.o(i.sinf) refers to fmul.o(.text) for __aeabi_fmul
    sinf.o(i.sinf) refers to frnd.o(.text) for _frnd
    sinf.o(i.sinf) refers to ffixi.o(.text) for __aeabi_f2iz
    sinf.o(i.sinf) refers to fadd.o(.text) for __aeabi_frsub
    sinf.o(i.sinf) refers to rredf.o(i.__mathlib_rredf2) for __mathlib_rredf2
    sinf.o(i.sinf) refers to fpclassifyf.o(i.__ARM_fpclassifyf) for __ARM_fpclassifyf
    sinf.o(i.sinf) refers to funder.o(i.__mathlib_flt_underflow) for __mathlib_flt_underflow
    sinf.o(i.sinf) refers to errno.o(i.__set_errno) for __set_errno
    sinf.o(i.sinf) refers to funder.o(i.__mathlib_flt_invalid) for __mathlib_flt_invalid
    sinf.o(i.sinf) refers to funder.o(i.__mathlib_flt_infnan) for __mathlib_flt_infnan
    sinf_x.o(i.____softfp_sinf$lsc) refers (Special) to iusefp.o(.text) for __I$use$fp
    sinf_x.o(i.____softfp_sinf$lsc) refers to sinf_x.o(i.__sinf$lsc) for __sinf$lsc
    sinf_x.o(i.__sinf$lsc) refers (Special) to iusefp.o(.text) for __I$use$fp
    sinf_x.o(i.__sinf$lsc) refers to fmul.o(.text) for __aeabi_fmul
    sinf_x.o(i.__sinf$lsc) refers to frnd.o(.text) for _frnd
    sinf_x.o(i.__sinf$lsc) refers to ffixi.o(.text) for __aeabi_f2iz
    sinf_x.o(i.__sinf$lsc) refers to fadd.o(.text) for __aeabi_frsub
    sinf_x.o(i.__sinf$lsc) refers to rredf.o(i.__mathlib_rredf2) for __mathlib_rredf2
    sinf_x.o(i.__sinf$lsc) refers to errno.o(i.__set_errno) for __set_errno
    sinf_x.o(i.__sinf$lsc) refers to funder.o(i.__mathlib_flt_infnan) for __mathlib_flt_infnan
    sqrtf.o(i.__softfp_sqrtf) refers (Special) to iusefp.o(.text) for __I$use$fp
    sqrtf.o(i.__softfp_sqrtf) refers to fsqrt.o(.text) for _fsqrt
    sqrtf.o(i.__softfp_sqrtf) refers to errno.o(i.__set_errno) for __set_errno
    sqrtf.o(i.sqrtf) refers (Special) to iusefp.o(.text) for __I$use$fp
    sqrtf.o(i.sqrtf) refers to fsqrt.o(.text) for _fsqrt
    sqrtf.o(i.sqrtf) refers to errno.o(i.__set_errno) for __set_errno
    sqrtf_x.o(i.____softfp_sqrtf$lsc) refers (Special) to iusefp.o(.text) for __I$use$fp
    sqrtf_x.o(i.____softfp_sqrtf$lsc) refers to errno.o(i.__set_errno) for __set_errno
    sqrtf_x.o(i.____softfp_sqrtf$lsc) refers to fsqrt.o(.text) for _fsqrt
    sqrtf_x.o(i.__sqrtf$lsc) refers (Special) to iusefp.o(.text) for __I$use$fp
    sqrtf_x.o(i.__sqrtf$lsc) refers to errno.o(i.__set_errno) for __set_errno
    sqrtf_x.o(i.__sqrtf$lsc) refers to fsqrt.o(.text) for _fsqrt
    entry.o(.ARM.Collect$$$$00000000) refers (Special) to entry10a.o(.ARM.Collect$$$$0000000D) for __rt_final_cpp
    entry.o(.ARM.Collect$$$$00000000) refers (Special) to entry11a.o(.ARM.Collect$$$$0000000F) for __rt_final_exit
    entry.o(.ARM.Collect$$$$00000000) refers (Special) to entry7b.o(.ARM.Collect$$$$00000008) for _main_clock
    entry.o(.ARM.Collect$$$$00000000) refers (Special) to entry8b.o(.ARM.Collect$$$$0000000A) for _main_cpp_init
    entry.o(.ARM.Collect$$$$00000000) refers (Special) to entry9a.o(.ARM.Collect$$$$0000000B) for _main_init
    entry.o(.ARM.Collect$$$$00000000) refers (Special) to entry5.o(.ARM.Collect$$$$00000004) for _main_scatterload
    entry.o(.ARM.Collect$$$$00000000) refers (Special) to entry2.o(.ARM.Collect$$$$00000001) for _main_stk
    cpp_init.o(.emb_text) refers (Special) to entry8a.o(.ARM.Collect$$$$00000009) for _main_cpp_init$empty
    cpp_init.o(.init_array) refers (Special) to entry8a.o(.ARM.Collect$$$$00000009) for _main_cpp_init$empty
    cpp_init.o(.init_array) refers to cpp_init.o(.text) for __cpp_initialize__aeabi_
    cpp_init.o(.dummy_text) refers (Special) to entry8a.o(.ARM.Collect$$$$00000009) for _main_cpp_init$empty
    cpp_init.o(.text) refers (Special) to entry8a.o(.ARM.Collect$$$$00000009) for _main_cpp_init$empty
    aeabi_atexit.o(.text) refers (Special) to cxa_finalize.o(.text) for __cxa_finalize
    aeabi_atexit.o(.text) refers to malloc.o(i.malloc) for malloc
    aeabi_atexit.o(.text) refers to cpp_dtor.o(.text) for __rt_ddtor_pointer_addr
    fadd.o(.text) refers (Special) to iusefp.o(.text) for __I$use$fp
    fadd.o(.text) refers to fepilogue.o(.text) for _float_epilogue
    fmul.o(.text) refers (Special) to iusefp.o(.text) for __I$use$fp
    fdiv.o(.text) refers (Special) to iusefp.o(.text) for __I$use$fp
    fdiv.o(.text) refers to fepilogue.o(.text) for _float_round
    dadd.o(.text) refers (Special) to iusefp.o(.text) for __I$use$fp
    dadd.o(.text) refers to llshl.o(.text) for __aeabi_llsl
    dadd.o(.text) refers to llsshr.o(.text) for __aeabi_lasr
    dadd.o(.text) refers to depilogue.o(.text) for _double_epilogue
    dmul.o(.text) refers (Special) to iusefp.o(.text) for __I$use$fp
    dmul.o(.text) refers to depilogue.o(.text) for _double_epilogue
    ddiv.o(.text) refers (Special) to iusefp.o(.text) for __I$use$fp
    ddiv.o(.text) refers to depilogue.o(.text) for _double_round
    fflti.o(.text) refers (Special) to iusefp.o(.text) for __I$use$fp
    fflti.o(.text) refers to fepilogue.o(.text) for _float_epilogue
    ffltui.o(.text) refers (Special) to iusefp.o(.text) for __I$use$fp
    ffltui.o(.text) refers to fepilogue.o(.text) for _float_epilogue
    dflti.o(.text) refers (Special) to iusefp.o(.text) for __I$use$fp
    dflti.o(.text) refers to depilogue.o(.text) for _double_epilogue
    dfltui.o(.text) refers (Special) to iusefp.o(.text) for __I$use$fp
    dfltui.o(.text) refers to depilogue.o(.text) for _double_epilogue
    ffixi.o(.text) refers (Special) to iusefp.o(.text) for __I$use$fp
    ffixui.o(.text) refers (Special) to iusefp.o(.text) for __I$use$fp
    dfixi.o(.text) refers (Special) to iusefp.o(.text) for __I$use$fp
    dfixi.o(.text) refers to llushr.o(.text) for __aeabi_llsr
    dfixui.o(.text) refers (Special) to iusefp.o(.text) for __I$use$fp
    dfixui.o(.text) refers to llushr.o(.text) for __aeabi_llsr
    f2d.o(.text) refers (Special) to iusefp.o(.text) for __I$use$fp
    cdcmple.o(.text) refers (Special) to iusefp.o(.text) for __I$use$fp
    cdrcmple.o(.text) refers (Special) to iusefp.o(.text) for __I$use$fp
    d2f.o(.text) refers (Special) to iusefp.o(.text) for __I$use$fp
    d2f.o(.text) refers to fepilogue.o(.text) for _float_round
    cfcmple.o(.text) refers (Special) to iusefp.o(.text) for __I$use$fp
    cfrcmple.o(.text) refers (Special) to iusefp.o(.text) for __I$use$fp
    atan.o(i.__softfp_atan) refers (Special) to iusefp.o(.text) for __I$use$fp
    atan.o(i.__softfp_atan) refers to atan.o(i.atan) for atan
    atan.o(i.atan) refers (Special) to iusefp.o(.text) for __I$use$fp
    atan.o(i.atan) refers to dunder.o(i.__mathlib_dbl_infnan) for __mathlib_dbl_infnan
    atan.o(i.atan) refers to fpclassify.o(i.__ARM_fpclassify) for __ARM_fpclassify
    atan.o(i.atan) refers to dunder.o(i.__mathlib_dbl_underflow) for __mathlib_dbl_underflow
    atan.o(i.atan) refers to dadd.o(.text) for __aeabi_dadd
    atan.o(i.atan) refers to dscalb.o(.text) for __ARM_scalbn
    atan.o(i.atan) refers to ddiv.o(.text) for __aeabi_ddiv
    atan.o(i.atan) refers to dmul.o(.text) for __aeabi_dmul
    atan.o(i.atan) refers to poly.o(i.__kernel_poly) for __kernel_poly
    atan.o(i.atan) refers to atan.o(.constdata) for .constdata
    atan.o(.constdata) refers (Special) to iusefp.o(.text) for __I$use$fp
    atan_x.o(i.____softfp_atan$lsc) refers (Special) to iusefp.o(.text) for __I$use$fp
    atan_x.o(i.____softfp_atan$lsc) refers to atan_x.o(i.__atan$lsc) for __atan$lsc
    atan_x.o(i.__atan$lsc) refers (Special) to iusefp.o(.text) for __I$use$fp
    atan_x.o(i.__atan$lsc) refers to dunder.o(i.__mathlib_dbl_infnan) for __mathlib_dbl_infnan
    atan_x.o(i.__atan$lsc) refers to dadd.o(.text) for __aeabi_dadd
    atan_x.o(i.__atan$lsc) refers to dscalb.o(.text) for __ARM_scalbn
    atan_x.o(i.__atan$lsc) refers to ddiv.o(.text) for __aeabi_ddiv
    atan_x.o(i.__atan$lsc) refers to dmul.o(.text) for __aeabi_dmul
    atan_x.o(i.__atan$lsc) refers to poly.o(i.__kernel_poly) for __kernel_poly
    atan_x.o(i.__atan$lsc) refers to atan_x.o(.constdata) for .constdata
    atan_x.o(.constdata) refers (Special) to iusefp.o(.text) for __I$use$fp
    dunder.o(i.__mathlib_dbl_divzero) refers to ddiv.o(.text) for __aeabi_ddiv
    dunder.o(i.__mathlib_dbl_infnan) refers to dscalb.o(.text) for __ARM_scalbn
    dunder.o(i.__mathlib_dbl_infnan2) refers to dadd.o(.text) for __aeabi_dadd
    dunder.o(i.__mathlib_dbl_invalid) refers to ddiv.o(.text) for __aeabi_ddiv
    dunder.o(i.__mathlib_dbl_overflow) refers to dscalb.o(.text) for __ARM_scalbn
    dunder.o(i.__mathlib_dbl_posinfnan) refers to dmul.o(.text) for __aeabi_dmul
    dunder.o(i.__mathlib_dbl_underflow) refers to dscalb.o(.text) for __ARM_scalbn
    fpclassifyf.o(i.__ARM_fpclassifyf) refers (Special) to iusefp.o(.text) for __I$use$fp
    funder.o(i.__mathlib_flt_divzero) refers to fdiv.o(.text) for __aeabi_fdiv
    funder.o(i.__mathlib_flt_infnan) refers to fscalb.o(.text) for __ARM_scalbnf
    funder.o(i.__mathlib_flt_infnan2) refers to fadd.o(.text) for __aeabi_fadd
    funder.o(i.__mathlib_flt_invalid) refers to fdiv.o(.text) for __aeabi_fdiv
    funder.o(i.__mathlib_flt_overflow) refers to fscalb.o(.text) for __ARM_scalbnf
    funder.o(i.__mathlib_flt_posinfnan) refers to fmul.o(.text) for __aeabi_fmul
    funder.o(i.__mathlib_flt_underflow) refers to fscalb.o(.text) for __ARM_scalbnf
    qnan.o(.constdata) refers (Special) to iusefp.o(.text) for __I$use$fp
    rredf.o(i.__mathlib_rredf2) refers (Special) to iusefp.o(.text) for __I$use$fp
    rredf.o(i.__mathlib_rredf2) refers to fflti.o(.text) for __aeabi_i2f
    rredf.o(i.__mathlib_rredf2) refers to ffltui.o(.text) for __aeabi_ui2f
    rredf.o(i.__mathlib_rredf2) refers to fscalb.o(.text) for __ARM_scalbnf
    rredf.o(i.__mathlib_rredf2) refers to fadd.o(.text) for __aeabi_fadd
    rredf.o(i.__mathlib_rredf2) refers to fmul.o(.text) for __aeabi_fmul
    rredf.o(i.__mathlib_rredf2) refers to rredf.o(.constdata) for .constdata
    rredf.o(.constdata) refers (Special) to iusefp.o(.text) for __I$use$fp
    entry2.o(.ARM.Collect$$$$00000001) refers to entry2.o(.ARM.Collect$$$$00002712) for __lit__00000000
    entry2.o(.ARM.Collect$$$$00002712) refers to startup_stm32f10x_md.o(STACK) for __initial_sp
    entry2.o(__vectab_stack_and_reset_area) refers to startup_stm32f10x_md.o(STACK) for __initial_sp
    entry2.o(__vectab_stack_and_reset_area) refers to entry.o(.ARM.Collect$$$$00000000) for __main
    entry5.o(.ARM.Collect$$$$00000004) refers to init.o(.text) for __scatterload
    entry8a.o(.ARM.Collect$$$$00000009) refers (Weak) to cpp_init.o(.text) for __cpp_initialize__aeabi_
    entry9a.o(.ARM.Collect$$$$0000000B) refers to main.o(i.main) for main
    entry9b.o(.ARM.Collect$$$$0000000C) refers to main.o(i.main) for main
    entry10b.o(.ARM.Collect$$$$0000000E) refers (Weak) to cxa_finalize.o(.text) for __cxa_finalize
    malloc.o(i.free) refers to mvars.o(.data) for __microlib_freelist
    malloc.o(i.malloc) refers to mvars.o(.data) for __microlib_freelist_initialised
    malloc.o(i.malloc) refers to mvars.o(.data) for __microlib_freelist
    malloc.o(i.malloc) refers to startup_stm32f10x_md.o(HEAP) for __heap_base
    mallocr.o(i.__free$realloc) refers to mvars.o(.data) for __microlib_freelist
    mallocr.o(i.__malloc$realloc) refers to mallocr.o(i.internal_alloc) for internal_alloc
    mallocr.o(i.__malloc$realloc) refers to mvars.o(.data) for __microlib_freelist_initialised
    mallocr.o(i.__malloc$realloc) refers to startup_stm32f10x_md.o(HEAP) for __heap_base
    mallocr.o(i.__malloc$realloc) refers to mvars.o(.data) for __microlib_freelist
    mallocr.o(i.internal_alloc) refers to memcpya.o(.text) for __aeabi_memcpy
    mallocr.o(i.internal_alloc) refers to mvars.o(.data) for __microlib_freelist
    mallocr.o(i.realloc) refers to mallocr.o(i.__free$realloc) for __free$realloc
    mallocr.o(i.realloc) refers to mallocr.o(i.internal_alloc) for internal_alloc
    mallocr.o(i.realloc) refers to mallocr.o(i.__malloc$realloc) for __malloc$realloc
    mallocr.o(i.realloc) refers to mvars.o(.data) for __microlib_freelist
    malloca.o(i.__aligned_malloc) refers to mvars.o(.data) for __microlib_freelist_initialised
    malloca.o(i.__aligned_malloc) refers to mvars.o(.data) for __microlib_freelist
    malloca.o(i.__aligned_malloc) refers to startup_stm32f10x_md.o(HEAP) for __heap_base
    malloca.o(i.__free$memalign) refers to mvars.o(.data) for __microlib_freelist
    malloca.o(i.__malloc$memalign) refers to malloca.o(i.__aligned_malloc) for __aligned_malloc
    mallocra.o(i.__aligned_malloc$realloc) refers to mallocra.o(i.internal_alloc) for internal_alloc
    mallocra.o(i.__aligned_malloc$realloc) refers to mvars.o(.data) for __microlib_freelist_initialised
    mallocra.o(i.__aligned_malloc$realloc) refers to startup_stm32f10x_md.o(HEAP) for __heap_base
    mallocra.o(i.__aligned_malloc$realloc) refers to mvars.o(.data) for __microlib_freelist
    mallocra.o(i.__free$realloc$memalign) refers to mvars.o(.data) for __microlib_freelist
    mallocra.o(i.__malloc$realloc$memalign) refers to mallocra.o(i.__aligned_malloc$realloc) for __aligned_malloc$realloc
    mallocra.o(i.__realloc$memalign) refers to mallocra.o(i.__free$realloc$memalign) for __free$realloc$memalign
    mallocra.o(i.__realloc$memalign) refers to mallocra.o(i.internal_alloc) for internal_alloc
    mallocra.o(i.__realloc$memalign) refers to mallocra.o(i.__malloc$realloc$memalign) for __malloc$realloc$memalign
    mallocra.o(i.__realloc$memalign) refers to mvars.o(.data) for __microlib_freelist
    mallocra.o(i.internal_alloc) refers to memcpya.o(.text) for __aeabi_memcpy
    mallocra.o(i.internal_alloc) refers to mvars.o(.data) for __microlib_freelist
    errno.o(i.__aeabi_errno_addr) refers to errno.o(.data) for .data
    errno.o(i.__read_errno) refers to errno.o(.data) for .data
    errno.o(i.__set_errno) refers to errno.o(.data) for .data
    cpp_dtor.o(.text) refers to cpp_dtor.o(.data) for .data
    cxa_finalize.o(.text) refers (Special) to cpp_final.o(.text) for __rt_lib_shutdown_cpp_2
    cxa_finalize.o(.text) refers to cpp_dtor.o(.text) for __rt_ddtor_pointer_addr
    cxa_finalize.o(.text) refers to malloc.o(i.free) for free
    fsqrt.o(.text) refers to fepilogue.o(.text) for _float_round
    frnd.o(.text) refers to fepilogue.o(.text) for _float_round
    depilogue.o(.text) refers to llshl.o(.text) for __aeabi_llsl
    depilogue.o(.text) refers to llushr.o(.text) for __aeabi_llsr
    fpclassify.o(i.__ARM_fpclassify) refers (Special) to iusefp.o(.text) for __I$use$fp
    poly.o(i.__kernel_poly) refers (Special) to iusefp.o(.text) for __I$use$fp
    poly.o(i.__kernel_poly) refers to dmul.o(.text) for __aeabi_dmul
    poly.o(i.__kernel_poly) refers to dadd.o(.text) for __aeabi_dadd
    init.o(.text) refers to entry5.o(.ARM.Collect$$$$00000004) for __main_after_scatterload
    cpp_final.o(.text) refers (Special) to entry10b.o(.ARM.Collect$$$$0000000E) for __rt_final_cpp$nonempty
    i2c.o(i._ZN6Sensor7UpdatedEv) refers to taskmanager.o(i._ZN11TaskManager4TimeEv) for TaskManager::Time()
    i2c.o(i._ZN6Sensor7UpdatedEv) refers to dadd.o(.text) for __aeabi_dsub
    i2c.o(.ARM.exidx) refers to i2c.o(i._ZN6Sensor7UpdatedEv) for i._ZN6Sensor7UpdatedEv
    i2c.o(.ARM.exidx) refers to i2c.o(t._ZN10FIFOBufferI18I2C_Command_StructLt40EEC1Ev) for t._ZN10FIFOBufferI18I2C_Command_StructLt40EEC1Ev
    i2c.o(t._ZN10FIFOBufferI18I2C_Command_StructLt40EE3PutERKS0_) refers to memcpya.o(.text) for __aeabi_memcpy4
    i2c.o(.ARM.exidx) refers to i2c.o(t._ZN10FIFOBufferI18I2C_Command_StructLt40EE3PutERKS0_) for t._ZN10FIFOBufferI18I2C_Command_StructLt40EE3PutERKS0_
    i2c.o(t._ZN10FIFOBufferI18I2C_Command_StructLt40EE3GetERS0_) refers to memcpya.o(.text) for __aeabi_memcpy4
    i2c.o(.ARM.exidx) refers to i2c.o(t._ZN10FIFOBufferI18I2C_Command_StructLt40EE3GetERS0_) for t._ZN10FIFOBufferI18I2C_Command_StructLt40EE3GetERS0_
    i2c.o(.ARM.exidx) refers to i2c.o(t._ZN10FIFOBufferI18I2C_Command_StructLt40EE4SizeEv) for t._ZN10FIFOBufferI18I2C_Command_StructLt40EE4SizeEv
    i2c.o(.ARM.exidx) refers to i2c.o(t._ZN10FIFOBufferI18I2C_Command_StructLt40EE5ClearEv) for t._ZN10FIFOBufferI18I2C_Command_StructLt40EE5ClearEv
    usart.o(.ARM.exidx) refers to usart.o(t._ZN10FIFOBufferIhLt128EEC1Ev) for t._ZN10FIFOBufferIhLt128EEC1Ev
    usart.o(.ARM.exidx) refers to usart.o(t._ZN10FIFOBufferIhLt128EE3PutERKh) for t._ZN10FIFOBufferIhLt128EE3PutERKh
    usart.o(.ARM.exidx) refers to usart.o(t._ZN10FIFOBufferIhLt128EE3GetERh) for t._ZN10FIFOBufferIhLt128EE3GetERh
    usart.o(.ARM.exidx) refers to usart.o(t._ZN10FIFOBufferIhLt128EE4PutsEPht) for t._ZN10FIFOBufferIhLt128EE4PutsEPht
    usart.o(.ARM.exidx) refers to usart.o(t._ZN10FIFOBufferIhLt128EE4GetsEPht) for t._ZN10FIFOBufferIhLt128EE4GetsEPht
    usart.o(.ARM.exidx) refers to usart.o(t._ZN10FIFOBufferIhLt128EE4SizeEv) for t._ZN10FIFOBufferIhLt128EE4SizeEv
    usart.o(.ARM.exidx) refers to usart.o(t._ZN10FIFOBufferIhLt128EE5ClearEv) for t._ZN10FIFOBufferIhLt128EE5ClearEv
    spi.o(.ARM.exidx) refers to spi.o(t._ZN10FIFOBufferIhLt64EEC1Ev) for t._ZN10FIFOBufferIhLt64EEC1Ev
    spi.o(.ARM.exidx) refers to spi.o(t._ZN10FIFOBufferIhLt64EE3PutERKh) for t._ZN10FIFOBufferIhLt64EE3PutERKh
    spi.o(.ARM.exidx) refers to spi.o(t._ZN10FIFOBufferIhLt64EE3GetERh) for t._ZN10FIFOBufferIhLt64EE3GetERh
    spi.o(.ARM.exidx) refers to spi.o(t._ZN10FIFOBufferIhLt64EE4PutsEPht) for t._ZN10FIFOBufferIhLt64EE4PutsEPht
    spi.o(.ARM.exidx) refers to spi.o(t._ZN10FIFOBufferIhLt64EE4GetsEPht) for t._ZN10FIFOBufferIhLt64EE4GetsEPht
    spi.o(.ARM.exidx) refers to spi.o(t._ZN10FIFOBufferIhLt64EE4SizeEv) for t._ZN10FIFOBufferIhLt64EE4SizeEv
    spi.o(.ARM.exidx) refers to spi.o(t._ZN10FIFOBufferIhLt64EE5ClearEv) for t._ZN10FIFOBufferIhLt64EE5ClearEv
    nrf24l01.o(i._ZN8NRF24L0112NRF_CSN_HIGHEv) refers to spi.o(i._ZN3SPI9SetCSNPinEh) for SPI::SetCSNPin(unsigned char)
    nrf24l01.o(.ARM.exidx) refers to nrf24l01.o(i._ZN8NRF24L0112NRF_CSN_HIGHEv) for i._ZN8NRF24L0112NRF_CSN_HIGHEv
    nrf24l01.o(i._ZN8NRF24L0110NRF_CE_LOWEv) refers to gpio.o(i._ZN4GPIO8SetLevelEh) for GPIO::SetLevel(unsigned char)
    nrf24l01.o(.ARM.exidx) refers to nrf24l01.o(i._ZN8NRF24L0110NRF_CE_LOWEv) for i._ZN8NRF24L0110NRF_CE_LOWEv
    nrf24l01.o(i._ZN8NRF24L0111NRF_CSN_LOWEv) refers to spi.o(i._ZN3SPI9SetCSNPinEh) for SPI::SetCSNPin(unsigned char)
    nrf24l01.o(.ARM.exidx) refers to nrf24l01.o(i._ZN8NRF24L0111NRF_CSN_LOWEv) for i._ZN8NRF24L0111NRF_CSN_LOWEv
    nrf24l01.o(i._ZN8NRF24L0111NRF_CE_HIGHEv) refers to gpio.o(i._ZN4GPIO8SetLevelEh) for GPIO::SetLevel(unsigned char)
    nrf24l01.o(.ARM.exidx) refers to nrf24l01.o(i._ZN8NRF24L0111NRF_CE_HIGHEv) for i._ZN8NRF24L0111NRF_CE_HIGHEv
    hmc5883l.o(.ARM.exidx) refers to hmc5883l.o(t._ZN7Vector3IiEC1Ev) for t._ZN7Vector3IiEC1Ev
    mpu6050.o(.ARM.exidx) refers to mpu6050.o(t._ZN7Vector3IiEaSERKS0_) for t._ZN7Vector3IiEaSERKS0_
    mpu6050.o(.ARM.exidx) refers to mpu6050.o(t._ZN7Vector3IfEC1Ev) for t._ZN7Vector3IfEC1Ev
    attitude.o(i._ZSt5atan2ff) refers to atan2f.o(i.atan2f) for atan2f
    attitude.o(.ARM.exidx) refers to attitude.o(i._ZSt5atan2ff) for i._ZSt5atan2ff
    attitude.o(i._ZSt4sqrtf) refers to sqrtf.o(i.sqrtf) for sqrtf
    attitude.o(.ARM.exidx) refers to attitude.o(i._ZSt4sqrtf) for i._ZSt4sqrtf
    attitude.o(i._ZSt4asinf) refers to asinf.o(i.asinf) for asinf
    attitude.o(.ARM.exidx) refers to attitude.o(i._ZSt4asinf) for i._ZSt4asinf
    control.o(i._ZSt4fabsf) refers (Special) to dadd.o(.text) for __aeabi_dsub
    control.o(.ARM.exidx) refers (Special) to dadd.o(.text) for __aeabi_dsub
    control.o(.ARM.exidx) refers to control.o(i._ZSt4fabsf) for i._ZSt4fabsf


==============================================================================

Removing Unused input sections from the image.

    Removing delay.o(.rev16_text), (4 bytes).
    Removing delay.o(.revsh_text), (4 bytes).
    Removing delay.o(.rrx_text), (6 bytes).
    Removing delay.o(i._ZN5Delay1SEj), (80 bytes).
    Removing delay.o(i._ZN5Delay2MsEt), (62 bytes).
    Removing delay.o(.ARM.exidx), (8 bytes).
    Removing delay.o(.ARM.exidx), (8 bytes).
    Removing delay.o(.ARM.exidx), (8 bytes).
    Removing f103_pwm.o(.rev16_text), (4 bytes).
    Removing f103_pwm.o(.revsh_text), (4 bytes).
    Removing f103_pwm.o(.rrx_text), (6 bytes).
    Removing f103_pwm.o(.ARM.exidx), (8 bytes).
    Removing f103_pwm.o(.ARM.exidx), (8 bytes).
    Removing f103_pwm.o(.ARM.exidx), (8 bytes).
    Removing f103_pwm.o(.ARM.exidx), (8 bytes).
    Removing gpio.o(.rev16_text), (4 bytes).
    Removing gpio.o(.revsh_text), (4 bytes).
    Removing gpio.o(.rrx_text), (6 bytes).
    Removing gpio.o(i._ZN4GPIO10ChangeModeE16GPIOMode_TypeDef), (44 bytes).
    Removing gpio.o(i._ZN4GPIO6ToggleEv), (56 bytes).
    Removing gpio.o(.ARM.exidx), (8 bytes).
    Removing gpio.o(.ARM.exidx), (8 bytes).
    Removing gpio.o(.ARM.exidx), (8 bytes).
    Removing gpio.o(.ARM.exidx), (8 bytes).
    Removing gpio.o(.ARM.exidx), (8 bytes).
    Removing gpio.o(.ARM.exidx), (8 bytes).
    Removing i2c.o(.rev16_text), (4 bytes).
    Removing i2c.o(.revsh_text), (4 bytes).
    Removing i2c.o(.rrx_text), (6 bytes).
    Removing i2c.o(i._ZN3I2C6DelaySEj), (14 bytes).
    Removing i2c.o(i._ZN3I2C7DelayMsEt), (14 bytes).
    Removing i2c.o(.ARM.exidx), (8 bytes).
    Removing i2c.o(.ARM.exidx), (8 bytes).
    Removing i2c.o(.ARM.exidx), (8 bytes).
    Removing i2c.o(.ARM.exidx), (8 bytes).
    Removing i2c.o(.ARM.exidx), (8 bytes).
    Removing i2c.o(.ARM.exidx), (8 bytes).
    Removing i2c.o(.ARM.exidx), (8 bytes).
    Removing i2c.o(.ARM.exidx), (8 bytes).
    Removing i2c.o(.ARM.exidx), (8 bytes).
    Removing i2c.o(.ARM.exidx), (8 bytes).
    Removing i2c.o(.ARM.exidx), (8 bytes).
    Removing i2c.o(.ARM.exidx), (8 bytes).
    Removing i2c.o(.ARM.exidx), (8 bytes).
    Removing i2c.o(.ARM.exidx), (8 bytes).
    Removing i2c.o(.ARM.exidx), (8 bytes).
    Removing i2c.o(.ARM.exidx), (8 bytes).
    Removing i2c.o(.ARM.exidx), (8 bytes).
    Removing i2c.o(.ARM.exidx), (8 bytes).
    Removing i2c.o(.ARM.exidx), (8 bytes).
    Removing i2c.o(.ARM.exidx), (8 bytes).
    Removing interrupt.o(.rev16_text), (4 bytes).
    Removing interrupt.o(.revsh_text), (4 bytes).
    Removing interrupt.o(.rrx_text), (6 bytes).
    Removing interrupt.o(.ARM.exidx), (8 bytes).
    Removing interrupt.o(.ARM.exidx), (8 bytes).
    Removing interrupt.o(.ARM.exidx), (8 bytes).
    Removing interrupt.o(.ARM.exidx), (8 bytes).
    Removing interrupt.o(.ARM.exidx), (8 bytes).
    Removing interrupt.o(.ARM.exidx), (8 bytes).
    Removing interrupt.o(.ARM.exidx), (8 bytes).
    Removing interrupt.o(.ARM.exidx), (8 bytes).
    Removing interrupt.o(.ARM.exidx), (8 bytes).
    Removing interrupt.o(.ARM.exidx), (8 bytes).
    Removing interrupt.o(.ARM.exidx), (8 bytes).
    Removing interrupt.o(.ARM.exidx), (8 bytes).
    Removing interrupt.o(.ARM.exidx), (8 bytes).
    Removing interrupt.o(.ARM.exidx), (8 bytes).
    Removing interrupt.o(.ARM.exidx), (8 bytes).
    Removing taskmanager.o(.rev16_text), (4 bytes).
    Removing taskmanager.o(.revsh_text), (4 bytes).
    Removing taskmanager.o(.rrx_text), (6 bytes).
    Removing taskmanager.o(i._ZN11TaskManager7DelayUsEt), (68 bytes).
    Removing taskmanager.o(.ARM.exidx), (8 bytes).
    Removing taskmanager.o(.ARM.exidx), (8 bytes).
    Removing taskmanager.o(.ARM.exidx), (8 bytes).
    Removing taskmanager.o(.ARM.exidx), (8 bytes).
    Removing taskmanager.o(.ARM.exidx), (8 bytes).
    Removing taskmanager.o(.ARM.exidx), (8 bytes).
    Removing taskmanager.o(.ARM.exidx), (8 bytes).
    Removing taskmanager.o(.ARM.exidx), (8 bytes).
    Removing timer.o(.rev16_text), (4 bytes).
    Removing timer.o(.revsh_text), (4 bytes).
    Removing timer.o(.rrx_text), (6 bytes).
    Removing timer.o(i._ZN5Timer10ConversionEttt), (152 bytes).
    Removing timer.o(i._ZN5Timer10GetNowTimeEv), (18 bytes).
    Removing timer.o(i._ZN5Timer10OnOrOffIrqEb), (30 bytes).
    Removing timer.o(i._ZN5Timer10ResetTimerEttt), (58 bytes).
    Removing timer.o(i._ZN5Timer11GetTimerArrEv), (6 bytes).
    Removing timer.o(i._ZN5Timer11GetTimerPscEv), (6 bytes).
    Removing timer.o(i._ZN5Timer4StopEv), (14 bytes).
    Removing timer.o(i._ZN5Timer5StartEv), (14 bytes).
    Removing timer.o(i._ZN5Timer7GetTIMxEv), (6 bytes).
    Removing timer.o(i._ZN5Timer8ClearCNTEv), (12 bytes).
    Removing timer.o(i._ZN5TimerC1EP11TIM_TypeDefhhhttt), (268 bytes).
    Removing timer.o(.ARM.exidx), (8 bytes).
    Removing timer.o(.ARM.exidx), (8 bytes).
    Removing timer.o(.ARM.exidx), (8 bytes).
    Removing timer.o(.ARM.exidx), (8 bytes).
    Removing timer.o(.ARM.exidx), (8 bytes).
    Removing timer.o(.ARM.exidx), (8 bytes).
    Removing timer.o(.ARM.exidx), (8 bytes).
    Removing timer.o(.ARM.exidx), (8 bytes).
    Removing timer.o(.ARM.exidx), (8 bytes).
    Removing timer.o(.ARM.exidx), (8 bytes).
    Removing timer.o(.ARM.exidx), (8 bytes).
    Removing usart.o(.rev16_text), (4 bytes).
    Removing usart.o(.revsh_text), (4 bytes).
    Removing usart.o(.rrx_text), (6 bytes).
    Removing usart.o(i._Z3funv), (2 bytes).
    Removing usart.o(i._ZN5USART11GetBaudRateEv), (8 bytes).
    Removing usart.o(i._ZN5USART11SetBaudRateEj), (172 bytes).
    Removing usart.o(i._ZN5USART12SetprecisionEh), (6 bytes).
    Removing usart.o(i._ZN5USART14SendBufferSizeEv), (12 bytes).
    Removing usart.o(i._ZN5USART15ClearSendBufferEv), (12 bytes).
    Removing usart.o(i._ZN5USART15GetReceivedDataEPht), (40 bytes).
    Removing usart.o(i._ZN5USART17ReceiveBufferSizeEv), (14 bytes).
    Removing usart.o(i._ZN5USART18ClearReceiveBufferEv), (14 bytes).
    Removing usart.o(i._ZN5USART6GetmRxEv), (8 bytes).
    Removing usart.o(i._ZN5USART6GetmTxEv), (8 bytes).
    Removing usart.o(i._ZN5USART6UseDmaEv), (8 bytes).
    Removing usart.o(i._ZN5USART8GetUSARTEv), (8 bytes).
    Removing usart.o(i._ZN5USARTlsEc), (18 bytes).
    Removing usart.o(.ARM.exidx), (8 bytes).
    Removing usart.o(.ARM.exidx), (8 bytes).
    Removing usart.o(.ARM.exidx), (8 bytes).
    Removing usart.o(.ARM.exidx), (8 bytes).
    Removing usart.o(.ARM.exidx), (8 bytes).
    Removing usart.o(.ARM.exidx), (8 bytes).
    Removing usart.o(.ARM.exidx), (8 bytes).
    Removing usart.o(.ARM.exidx), (8 bytes).
    Removing usart.o(.ARM.exidx), (8 bytes).
    Removing usart.o(.ARM.exidx), (8 bytes).
    Removing usart.o(.ARM.exidx), (8 bytes).
    Removing usart.o(.ARM.exidx), (8 bytes).
    Removing usart.o(.ARM.exidx), (8 bytes).
    Removing usart.o(.ARM.exidx), (8 bytes).
    Removing usart.o(.ARM.exidx), (8 bytes).
    Removing usart.o(.ARM.exidx), (8 bytes).
    Removing usart.o(.ARM.exidx), (8 bytes).
    Removing usart.o(.ARM.exidx), (8 bytes).
    Removing usart.o(.ARM.exidx), (8 bytes).
    Removing usart.o(.ARM.exidx), (8 bytes).
    Removing usart.o(.ARM.exidx), (8 bytes).
    Removing usart.o(.ARM.exidx), (8 bytes).
    Removing led.o(.rev16_text), (4 bytes).
    Removing led.o(.revsh_text), (4 bytes).
    Removing led.o(.rrx_text), (6 bytes).
    Removing led.o(i._ZN3LED3OffEv), (18 bytes).
    Removing led.o(i._ZN3LED5BlinkEhtb), (152 bytes).
    Removing led.o(i._ZN3LED6Blink2ERS_ht), (64 bytes).
    Removing led.o(i._ZN3LED6Blink3ERS_ht), (70 bytes).
    Removing led.o(i._ZN3LED6ToggleEv), (32 bytes).
    Removing led.o(.ARM.exidx), (8 bytes).
    Removing led.o(.ARM.exidx), (8 bytes).
    Removing led.o(.ARM.exidx), (8 bytes).
    Removing led.o(.ARM.exidx), (8 bytes).
    Removing led.o(.ARM.exidx), (8 bytes).
    Removing led.o(.ARM.exidx), (8 bytes).
    Removing led.o(.ARM.exidx), (8 bytes).
    Removing led.o(.data), (16 bytes).
    Removing eeprom.o(.rev16_text), (4 bytes).
    Removing eeprom.o(.revsh_text), (4 bytes).
    Removing eeprom.o(.rrx_text), (6 bytes).
    Removing eeprom.o(i._Z15EE_PageTransfertt), (244 bytes).
    Removing eeprom.o(i._Z15EE_ReadVariabletPt), (96 bytes).
    Removing eeprom.o(i._Z16EE_FindValidPageh), (88 bytes).
    Removing eeprom.o(i._Z16EE_WriteVariablett), (36 bytes).
    Removing eeprom.o(i._Z17InitCurrWrAddressv), (100 bytes).
    Removing eeprom.o(i._Z30EE_VerifyPageFullWriteVariablett), (136 bytes).
    Removing eeprom.o(i._Z7EE_Initv), (20 bytes).
    Removing eeprom.o(i._Z9EE_Formatv), (60 bytes).
    Removing eeprom.o(i._Z9__EE_Initv), (504 bytes).
    Removing eeprom.o(.ARM.exidx), (8 bytes).
    Removing eeprom.o(.ARM.exidx), (8 bytes).
    Removing eeprom.o(.ARM.exidx), (8 bytes).
    Removing eeprom.o(.ARM.exidx), (8 bytes).
    Removing eeprom.o(.ARM.exidx), (8 bytes).
    Removing eeprom.o(.ARM.exidx), (8 bytes).
    Removing eeprom.o(.ARM.exidx), (8 bytes).
    Removing eeprom.o(.ARM.exidx), (8 bytes).
    Removing eeprom.o(.ARM.exidx), (8 bytes).
    Removing eeprom.o(.data), (122 bytes).
    Removing spi.o(.rev16_text), (4 bytes).
    Removing spi.o(.revsh_text), (4 bytes).
    Removing spi.o(.rrx_text), (6 bytes).
    Removing spi.o(i._ZN3SPI14SendBufferSizeEv), (12 bytes).
    Removing spi.o(i._ZN3SPI15ClearSendBufferEv), (12 bytes).
    Removing spi.o(i._ZN3SPI15GetReceivedDataEPht), (40 bytes).
    Removing spi.o(i._ZN3SPI17ReceiveBufferSizeEv), (14 bytes).
    Removing spi.o(i._ZN3SPI18ClearReceiveBufferEv), (14 bytes).
    Removing spi.o(i._ZN3SPI6DmaIrqEv), (164 bytes).
    Removing spi.o(i._ZN3SPI6UseDmaEv), (8 bytes).
    Removing spi.o(i._ZN3SPI6getSPIEv), (8 bytes).
    Removing spi.o(i._ZN3SPI9GetmMISOxEv), (8 bytes).
    Removing spi.o(i._ZN3SPI9GetmMOSIxEv), (8 bytes).
    Removing spi.o(.ARM.exidx), (8 bytes).
    Removing spi.o(.ARM.exidx), (8 bytes).
    Removing spi.o(.ARM.exidx), (8 bytes).
    Removing spi.o(.ARM.exidx), (8 bytes).
    Removing spi.o(.ARM.exidx), (8 bytes).
    Removing spi.o(.ARM.exidx), (8 bytes).
    Removing spi.o(.ARM.exidx), (8 bytes).
    Removing spi.o(.ARM.exidx), (8 bytes).
    Removing spi.o(.ARM.exidx), (8 bytes).
    Removing spi.o(.ARM.exidx), (8 bytes).
    Removing spi.o(.ARM.exidx), (8 bytes).
    Removing spi.o(.ARM.exidx), (8 bytes).
    Removing spi.o(.ARM.exidx), (8 bytes).
    Removing spi.o(.ARM.exidx), (8 bytes).
    Removing spi.o(.ARM.exidx), (8 bytes).
    Removing spi.o(.ARM.exidx), (8 bytes).
    Removing spi.o(.ARM.exidx), (8 bytes).
    Removing spi.o(.ARM.exidx), (8 bytes).
    Removing nrf24l01.o(.rev16_text), (4 bytes).
    Removing nrf24l01.o(.revsh_text), (4 bytes).
    Removing nrf24l01.o(.rrx_text), (6 bytes).
    Removing nrf24l01.o(i._Z5Delayj), (18 bytes).
    Removing nrf24l01.o(i._ZN8NRF24L0111NRF_TX_ModeEv), (140 bytes).
    Removing nrf24l01.o(i._ZN8NRF24L0114NRF_SendPacketEPh), (152 bytes).
    Removing nrf24l01.o(i._ZN8NRF24L0114SendBufferSizeEv), (12 bytes).
    Removing nrf24l01.o(i._ZN8NRF24L0115ClearSendBufferEv), (12 bytes).
    Removing nrf24l01.o(i._ZN8NRF24L0116NRF_ReceiverDataEPht), (22 bytes).
    Removing nrf24l01.o(i._ZN8NRF24L0117NRF_RecievePacketEPh), (72 bytes).
    Removing nrf24l01.o(i._ZN8NRF24L018SendDataEPhj), (118 bytes).
    Removing nrf24l01.o(.ARM.exidx), (8 bytes).
    Removing nrf24l01.o(.ARM.exidx), (8 bytes).
    Removing nrf24l01.o(.ARM.exidx), (8 bytes).
    Removing nrf24l01.o(.ARM.exidx), (8 bytes).
    Removing nrf24l01.o(.ARM.exidx), (8 bytes).
    Removing nrf24l01.o(.ARM.exidx), (8 bytes).
    Removing nrf24l01.o(.ARM.exidx), (8 bytes).
    Removing nrf24l01.o(.ARM.exidx), (8 bytes).
    Removing nrf24l01.o(.ARM.exidx), (8 bytes).
    Removing nrf24l01.o(.ARM.exidx), (8 bytes).
    Removing nrf24l01.o(.ARM.exidx), (8 bytes).
    Removing nrf24l01.o(.ARM.exidx), (8 bytes).
    Removing nrf24l01.o(.ARM.exidx), (8 bytes).
    Removing nrf24l01.o(.ARM.exidx), (8 bytes).
    Removing nrf24l01.o(.ARM.exidx), (8 bytes).
    Removing nrf24l01.o(.ARM.exidx), (8 bytes).
    Removing nrf24l01.o(.ARM.exidx), (8 bytes).
    Removing nrf24l01.o(.ARM.exidx), (8 bytes).
    Removing nrf24l01.o(.ARM.exidx), (8 bytes).
    Removing nrf24l01.o(.ARM.exidx), (8 bytes).
    Removing nrf24l01.o(.ARM.exidx), (8 bytes).
    Removing nrf24l01.o(.ARM.exidx), (8 bytes).
    Removing nrf24l01.o(.ARM.exidx), (8 bytes).
    Removing nrf24l01.o(.ARM.exidx), (8 bytes).
    Removing flash.o(.rev16_text), (4 bytes).
    Removing flash.o(.revsh_text), (4 bytes).
    Removing flash.o(.rrx_text), (6 bytes).
    Removing flash.o(i._ZN5flash4ReadEtt), (144 bytes).
    Removing flash.o(i._ZN5flash4ReadEttPc), (100 bytes).
    Removing flash.o(i._ZN5flash4ReadEttPtt), (76 bytes).
    Removing flash.o(i._ZN5flash5ClearEt), (40 bytes).
    Removing flash.o(i._ZN5flash5WriteEtPht), (136 bytes).
    Removing flash.o(i._ZN5flash5WriteEtPjt), (138 bytes).
    Removing flash.o(i._ZN5flash5WriteEttPc), (190 bytes).
    Removing flash.o(i._ZN5flash5WriteEttPtt), (168 bytes).
    Removing flash.o(i._ZN5flash5WriteEttf), (140 bytes).
    Removing flash.o(.ARM.exidx), (8 bytes).
    Removing flash.o(.ARM.exidx), (8 bytes).
    Removing flash.o(.ARM.exidx), (8 bytes).
    Removing flash.o(.ARM.exidx), (8 bytes).
    Removing flash.o(.ARM.exidx), (8 bytes).
    Removing flash.o(.ARM.exidx), (8 bytes).
    Removing flash.o(.ARM.exidx), (8 bytes).
    Removing flash.o(.ARM.exidx), (8 bytes).
    Removing flash.o(.ARM.exidx), (8 bytes).
    Removing flash.o(.ARM.exidx), (8 bytes).
    Removing hmc5883l.o(.rev16_text), (4 bytes).
    Removing hmc5883l.o(.revsh_text), (4 bytes).
    Removing hmc5883l.o(.rrx_text), (6 bytes).
    Removing hmc5883l.o(i._ZN8HMC5883L10GetDataRawEv), (158 bytes).
    Removing hmc5883l.o(i._ZN8HMC5883L12IsCalibratedEv), (8 bytes).
    Removing hmc5883l.o(i._ZN8HMC5883L14GetReadyStatusEv), (20 bytes).
    Removing hmc5883l.o(i._ZN8HMC5883L14TestConnectionEb), (152 bytes).
    Removing hmc5883l.o(i._ZN8HMC5883L17GetUpdateIntervalEv), (24 bytes).
    Removing hmc5883l.o(i._ZN8HMC5883L21GetNoCalibrateDataRawEv), (70 bytes).
    Removing hmc5883l.o(i._ZN8HMC5883L21SetCalibrateRatioBiasEffff), (28 bytes).
    Removing hmc5883l.o(i._ZN8HMC5883L21SetCalibrateRatioBiasEffffff), (24 bytes).
    Removing hmc5883l.o(i._ZN8HMC5883L4InitEb), (160 bytes).
    Removing hmc5883l.o(i._ZN8HMC5883L4InitEffffffb), (194 bytes).
    Removing hmc5883l.o(i._ZN8HMC5883L6UpdateEbP7Vector3IiE), (200 bytes).
    Removing hmc5883l.o(i._ZN8HMC5883L7HeadingEv), (220 bytes).
    Removing hmc5883l.o(i._ZN8HMC5883L8IsLockedEv), (20 bytes).
    Removing hmc5883l.o(i._ZN8HMC5883L9CalibrateEd), (928 bytes).
    Removing hmc5883l.o(i._ZN8HMC5883L9GetHealthEv), (6 bytes).
    Removing hmc5883l.o(i._ZN8HMC5883LC1ER3I2C), (28 bytes).
    Removing hmc5883l.o(.ARM.exidx), (8 bytes).
    Removing hmc5883l.o(.ARM.exidx), (8 bytes).
    Removing hmc5883l.o(.ARM.exidx), (8 bytes).
    Removing hmc5883l.o(.ARM.exidx), (8 bytes).
    Removing hmc5883l.o(.ARM.exidx), (8 bytes).
    Removing hmc5883l.o(.ARM.exidx), (8 bytes).
    Removing hmc5883l.o(.ARM.exidx), (8 bytes).
    Removing hmc5883l.o(.ARM.exidx), (8 bytes).
    Removing hmc5883l.o(.ARM.exidx), (8 bytes).
    Removing hmc5883l.o(.ARM.exidx), (8 bytes).
    Removing hmc5883l.o(.ARM.exidx), (8 bytes).
    Removing hmc5883l.o(.ARM.exidx), (8 bytes).
    Removing hmc5883l.o(.ARM.exidx), (8 bytes).
    Removing hmc5883l.o(.ARM.exidx), (8 bytes).
    Removing hmc5883l.o(.ARM.exidx), (8 bytes).
    Removing hmc5883l.o(.ARM.exidx), (8 bytes).
    Removing hmc5883l.o(.data), (1 bytes).
    Removing mpu6050.o(.rev16_text), (4 bytes).
    Removing mpu6050.o(.revsh_text), (4 bytes).
    Removing mpu6050.o(.rrx_text), (6 bytes).
    Removing mpu6050.o(i._ZN7mpu605010GetTempRawEv), (18 bytes).
    Removing mpu6050.o(i._ZN7mpu605012GetGyrOffsetEv), (14 bytes).
    Removing mpu6050.o(i._ZN7mpu605017StopGyroCalibrateEv), (8 bytes).
    Removing mpu6050.o(i._ZN7mpu605021GetMaxUpdateFrequencyEv), (6 bytes).
    Removing mpu6050.o(i._ZN7mpu605021SetMaxUpdateFrequencyEt), (4 bytes).
    Removing mpu6050.o(i._ZN7mpu60506GetAccEv), (118 bytes).
    Removing mpu6050.o(.ARM.exidx), (8 bytes).
    Removing mpu6050.o(.ARM.exidx), (8 bytes).
    Removing mpu6050.o(.ARM.exidx), (8 bytes).
    Removing mpu6050.o(.ARM.exidx), (8 bytes).
    Removing mpu6050.o(.ARM.exidx), (8 bytes).
    Removing mpu6050.o(.ARM.exidx), (8 bytes).
    Removing mpu6050.o(.ARM.exidx), (8 bytes).
    Removing mpu6050.o(.ARM.exidx), (8 bytes).
    Removing mpu6050.o(.ARM.exidx), (8 bytes).
    Removing mpu6050.o(.ARM.exidx), (8 bytes).
    Removing mpu6050.o(.ARM.exidx), (8 bytes).
    Removing mpu6050.o(.ARM.exidx), (8 bytes).
    Removing mpu6050.o(.ARM.exidx), (8 bytes).
    Removing mpu6050.o(.ARM.exidx), (8 bytes).
    Removing mpu6050.o(.ARM.exidx), (8 bytes).
    Removing mpu6050.o(.ARM.exidx), (8 bytes).
    Removing mpu6050.o(.ARM.exidx), (8 bytes).
    Removing mpu6050.o(.ARM.exidx), (8 bytes).
    Removing mpu6050.o(.ARM.exidx), (8 bytes).
    Removing attitude.o(i._ZN19AttitudeCalculation8GetAngleE7Vector3IiES0_IfES1_f), (408 bytes).
    Removing attitude.o(.ARM.exidx), (8 bytes).
    Removing attitude.o(.ARM.exidx), (8 bytes).
    Removing attitude.o(.ARM.exidx), (8 bytes).
    Removing attitude.o(.ARM.exidx), (8 bytes).
    Removing imu.o(.rev16_text), (4 bytes).
    Removing imu.o(.revsh_text), (4 bytes).
    Removing imu.o(.rrx_text), (6 bytes).
    Removing imu.o(i._ZN3IMU12MagCalibrateEd), (10 bytes).
    Removing imu.o(i._ZN3IMU15MagIsCalibratedEv), (8 bytes).
    Removing imu.o(i._ZN3IMU4initEffffff), (136 bytes).
    Removing imu.o(.ARM.exidx), (8 bytes).
    Removing imu.o(.ARM.exidx), (8 bytes).
    Removing imu.o(.ARM.exidx), (8 bytes).
    Removing imu.o(.ARM.exidx), (8 bytes).
    Removing imu.o(.ARM.exidx), (8 bytes).
    Removing imu.o(.ARM.exidx), (8 bytes).
    Removing imu.o(.ARM.exidx), (8 bytes).
    Removing imu.o(.ARM.exidx), (8 bytes).
    Removing imu.o(.ARM.exidx), (8 bytes).
    Removing main.o(.rev16_text), (4 bytes).
    Removing main.o(.revsh_text), (4 bytes).
    Removing main.o(.rrx_text), (6 bytes).
    Removing main.o(.ARM.exidx), (8 bytes).
    Removing main.o(.ARM.exidx), (8 bytes).
    Removing main.o(.ARM.exidx), (8 bytes).
    Removing control.o(.rev16_text), (4 bytes).
    Removing control.o(.revsh_text), (4 bytes).
    Removing control.o(.rrx_text), (6 bytes).
    Removing control.o(i._ZN7Control11TestControlE7Vector3IfES1_tttt), (960 bytes).
    Removing control.o(i._ZN7Control12ControlMotorEt), (182 bytes).
    Removing control.o(i._ZN7Control12ServoControlE7Vector3IfES1_tttt), (444 bytes).
    Removing control.o(i._ZN7Control16SeriesPIDControlE7Vector3IfES1_tttt), (492 bytes).
    Removing control.o(i._ZN7Control20TOOL_PID_Postion_CalEP11PID_Typedeffffd), (260 bytes).
    Removing control.o(i._ZN7Control7ReadPIDE5flashtt), (344 bytes).
    Removing control.o(i._ZN7Control7SavePIDE5flashtt), (244 bytes).
    Removing control.o(.ARM.exidx), (8 bytes).
    Removing control.o(.ARM.exidx), (8 bytes).
    Removing control.o(.ARM.exidx), (8 bytes).
    Removing control.o(.ARM.exidx), (8 bytes).
    Removing control.o(.ARM.exidx), (8 bytes).
    Removing control.o(.ARM.exidx), (8 bytes).
    Removing control.o(.ARM.exidx), (8 bytes).
    Removing control.o(.ARM.exidx), (8 bytes).
    Removing control.o(.ARM.exidx), (8 bytes).
    Removing control.o(.data), (16 bytes).
    Removing communication.o(.rev16_text), (4 bytes).
    Removing communication.o(.revsh_text), (4 bytes).
    Removing communication.o(.rrx_text), (6 bytes).
    Removing communication.o(i._ZN13Communication11SendMotoMsgEtttttttt), (318 bytes).
    Removing communication.o(i._ZN13Communication15SendCopterStateEfffihh), (332 bytes).
    Removing communication.o(i._ZN13Communication22SendRcvControlQuantityEv), (204 bytes).
    Removing communication.o(i._ZN13Communication22SendSensorOriginalDataE7Vector3IiES1_S1_), (392 bytes).
    Removing communication.o(i._ZN13Communication4testEfffffffff), (524 bytes).
    Removing communication.o(i._ZN13Communication5replyEhh), (96 bytes).
    Removing communication.o(i._ZN13Communication7SendPIDEfffffffff), (524 bytes).
    Removing communication.o(.ARM.exidx), (8 bytes).
    Removing communication.o(.ARM.exidx), (8 bytes).
    Removing communication.o(.ARM.exidx), (8 bytes).
    Removing communication.o(.ARM.exidx), (8 bytes).
    Removing communication.o(.ARM.exidx), (8 bytes).
    Removing communication.o(.ARM.exidx), (8 bytes).
    Removing communication.o(.ARM.exidx), (8 bytes).
    Removing communication.o(.ARM.exidx), (8 bytes).
    Removing communication.o(.ARM.exidx), (8 bytes).
    Removing communication.o(.ARM.exidx), (8 bytes).
    Removing crc.o(i._Z14CRC16CalculatePKht), (134 bytes).
    Removing crc.o(.ARM.exidx), (8 bytes).
    Removing moto_pwm.o(.rev16_text), (4 bytes).
    Removing moto_pwm.o(.revsh_text), (4 bytes).
    Removing moto_pwm.o(.rrx_text), (6 bytes).
    Removing moto_pwm.o(i._Z13MotorPwmFlashssss), (96 bytes).
    Removing moto_pwm.o(i._Z9MotorInitv), (316 bytes).
    Removing moto_pwm.o(.ARM.exidx), (8 bytes).
    Removing moto_pwm.o(.ARM.exidx), (8 bytes).
    Removing moto_pwm.o(.data), (8 bytes).
    Removing misc.o(.rev16_text), (4 bytes).
    Removing misc.o(.revsh_text), (4 bytes).
    Removing misc.o(.rrx_text), (6 bytes).
    Removing misc.o(i.NVIC_SetVectorTable), (20 bytes).
    Removing misc.o(i.NVIC_SystemLPConfig), (32 bytes).
    Removing misc.o(i.SysTick_CLKSourceConfig), (40 bytes).
    Removing stm32f10x_dma.o(.rev16_text), (4 bytes).
    Removing stm32f10x_dma.o(.revsh_text), (4 bytes).
    Removing stm32f10x_dma.o(.rrx_text), (6 bytes).
    Removing stm32f10x_dma.o(i.DMA_GetITStatus), (44 bytes).
    Removing stm32f10x_dma.o(i.DMA_SetCurrDataCounter), (4 bytes).
    Removing stm32f10x_dma.o(i.DMA_StructInit), (26 bytes).
    Removing stm32f10x_exti.o(.rev16_text), (4 bytes).
    Removing stm32f10x_exti.o(.revsh_text), (4 bytes).
    Removing stm32f10x_exti.o(.rrx_text), (6 bytes).
    Removing stm32f10x_exti.o(i.EXTI_ClearFlag), (12 bytes).
    Removing stm32f10x_exti.o(i.EXTI_DeInit), (36 bytes).
    Removing stm32f10x_exti.o(i.EXTI_GenerateSWInterrupt), (16 bytes).
    Removing stm32f10x_exti.o(i.EXTI_GetFlagStatus), (24 bytes).
    Removing stm32f10x_exti.o(i.EXTI_StructInit), (16 bytes).
    Removing stm32f10x_flash.o(.rev16_text), (4 bytes).
    Removing stm32f10x_flash.o(.revsh_text), (4 bytes).
    Removing stm32f10x_flash.o(.rrx_text), (6 bytes).
    Removing stm32f10x_flash.o(i.FLASH_ClearFlag), (12 bytes).
    Removing stm32f10x_flash.o(i.FLASH_EnableWriteProtection), (196 bytes).
    Removing stm32f10x_flash.o(i.FLASH_EraseAllBank1Pages), (72 bytes).
    Removing stm32f10x_flash.o(i.FLASH_EraseAllPages), (72 bytes).
    Removing stm32f10x_flash.o(i.FLASH_EraseOptionBytes), (168 bytes).
    Removing stm32f10x_flash.o(i.FLASH_ErasePage), (76 bytes).
    Removing stm32f10x_flash.o(i.FLASH_GetBank1Status), (52 bytes).
    Removing stm32f10x_flash.o(i.FLASH_GetFlagStatus), (48 bytes).
    Removing stm32f10x_flash.o(i.FLASH_GetPrefetchBufferStatus), (24 bytes).
    Removing stm32f10x_flash.o(i.FLASH_GetReadOutProtectionStatus), (24 bytes).
    Removing stm32f10x_flash.o(i.FLASH_GetStatus), (52 bytes).
    Removing stm32f10x_flash.o(i.FLASH_GetUserOptionByte), (12 bytes).
    Removing stm32f10x_flash.o(i.FLASH_GetWriteProtectionOptionByte), (12 bytes).
    Removing stm32f10x_flash.o(i.FLASH_HalfCycleAccessCmd), (28 bytes).
    Removing stm32f10x_flash.o(i.FLASH_ITConfig), (32 bytes).
    Removing stm32f10x_flash.o(i.FLASH_Lock), (20 bytes).
    Removing stm32f10x_flash.o(i.FLASH_LockBank1), (20 bytes).
    Removing stm32f10x_flash.o(i.FLASH_PrefetchBufferCmd), (28 bytes).
    Removing stm32f10x_flash.o(i.FLASH_ProgramHalfWord), (64 bytes).
    Removing stm32f10x_flash.o(i.FLASH_ProgramOptionByteData), (84 bytes).
    Removing stm32f10x_flash.o(i.FLASH_ProgramWord), (108 bytes).
    Removing stm32f10x_flash.o(i.FLASH_ReadOutProtection), (172 bytes).
    Removing stm32f10x_flash.o(i.FLASH_SetLatency), (24 bytes).
    Removing stm32f10x_flash.o(i.FLASH_Unlock), (24 bytes).
    Removing stm32f10x_flash.o(i.FLASH_UnlockBank1), (24 bytes).
    Removing stm32f10x_flash.o(i.FLASH_UserOptionByteConfig), (104 bytes).
    Removing stm32f10x_flash.o(i.FLASH_WaitForLastBank1Operation), (38 bytes).
    Removing stm32f10x_flash.o(i.FLASH_WaitForLastOperation), (38 bytes).
    Removing stm32f10x_gpio.o(.rev16_text), (4 bytes).
    Removing stm32f10x_gpio.o(.revsh_text), (4 bytes).
    Removing stm32f10x_gpio.o(.rrx_text), (6 bytes).
    Removing stm32f10x_gpio.o(i.GPIO_AFIODeInit), (20 bytes).
    Removing stm32f10x_gpio.o(i.GPIO_DeInit), (200 bytes).
    Removing stm32f10x_gpio.o(i.GPIO_ETH_MediaInterfaceConfig), (12 bytes).
    Removing stm32f10x_gpio.o(i.GPIO_EventOutputCmd), (12 bytes).
    Removing stm32f10x_gpio.o(i.GPIO_EventOutputConfig), (32 bytes).
    Removing stm32f10x_gpio.o(i.GPIO_PinLockConfig), (18 bytes).
    Removing stm32f10x_gpio.o(i.GPIO_ReadInputData), (8 bytes).
    Removing stm32f10x_gpio.o(i.GPIO_ReadOutputData), (8 bytes).
    Removing stm32f10x_gpio.o(i.GPIO_ReadOutputDataBit), (18 bytes).
    Removing stm32f10x_gpio.o(i.GPIO_StructInit), (16 bytes).
    Removing stm32f10x_gpio.o(i.GPIO_Write), (4 bytes).
    Removing stm32f10x_gpio.o(i.GPIO_WriteBit), (10 bytes).
    Removing stm32f10x_i2c.o(.rev16_text), (4 bytes).
    Removing stm32f10x_i2c.o(.revsh_text), (4 bytes).
    Removing stm32f10x_i2c.o(.rrx_text), (6 bytes).
    Removing stm32f10x_i2c.o(i.I2C_ARPCmd), (24 bytes).
    Removing stm32f10x_i2c.o(i.I2C_CalculatePEC), (24 bytes).
    Removing stm32f10x_i2c.o(i.I2C_CheckEvent), (42 bytes).
    Removing stm32f10x_i2c.o(i.I2C_ClearFlag), (12 bytes).
    Removing stm32f10x_i2c.o(i.I2C_ClearITPendingBit), (12 bytes).
    Removing stm32f10x_i2c.o(i.I2C_Cmd), (24 bytes).
    Removing stm32f10x_i2c.o(i.I2C_DMACmd), (24 bytes).
    Removing stm32f10x_i2c.o(i.I2C_DMALastTransferCmd), (24 bytes).
    Removing stm32f10x_i2c.o(i.I2C_DeInit), (56 bytes).
    Removing stm32f10x_i2c.o(i.I2C_DualAddressCmd), (24 bytes).
    Removing stm32f10x_i2c.o(i.I2C_FastModeDutyCycleConfig), (28 bytes).
    Removing stm32f10x_i2c.o(i.I2C_GeneralCallCmd), (24 bytes).
    Removing stm32f10x_i2c.o(i.I2C_GetITStatus), (38 bytes).
    Removing stm32f10x_i2c.o(i.I2C_GetPEC), (8 bytes).
    Removing stm32f10x_i2c.o(i.I2C_ITConfig), (18 bytes).
    Removing stm32f10x_i2c.o(i.I2C_NACKPositionConfig), (28 bytes).
    Removing stm32f10x_i2c.o(i.I2C_OwnAddress2Config), (22 bytes).
    Removing stm32f10x_i2c.o(i.I2C_PECPositionConfig), (28 bytes).
    Removing stm32f10x_i2c.o(i.I2C_ReadRegister), (22 bytes).
    Removing stm32f10x_i2c.o(i.I2C_SMBusAlertConfig), (28 bytes).
    Removing stm32f10x_i2c.o(i.I2C_SoftwareResetCmd), (22 bytes).
    Removing stm32f10x_i2c.o(i.I2C_StretchClockCmd), (24 bytes).
    Removing stm32f10x_i2c.o(i.I2C_StructInit), (30 bytes).
    Removing stm32f10x_i2c.o(i.I2C_TransmitPEC), (24 bytes).
    Removing stm32f10x_rcc.o(.rev16_text), (4 bytes).
    Removing stm32f10x_rcc.o(.revsh_text), (4 bytes).
    Removing stm32f10x_rcc.o(.rrx_text), (6 bytes).
    Removing stm32f10x_rcc.o(i.RCC_ADCCLKConfig), (24 bytes).
    Removing stm32f10x_rcc.o(i.RCC_APB2PeriphResetCmd), (32 bytes).
    Removing stm32f10x_rcc.o(i.RCC_AdjustHSICalibrationValue), (24 bytes).
    Removing stm32f10x_rcc.o(i.RCC_BackupResetCmd), (12 bytes).
    Removing stm32f10x_rcc.o(i.RCC_ClearFlag), (20 bytes).
    Removing stm32f10x_rcc.o(i.RCC_ClearITPendingBit), (12 bytes).
    Removing stm32f10x_rcc.o(i.RCC_ClockSecuritySystemCmd), (12 bytes).
    Removing stm32f10x_rcc.o(i.RCC_GetITStatus), (24 bytes).
    Removing stm32f10x_rcc.o(i.RCC_HSICmd), (12 bytes).
    Removing stm32f10x_rcc.o(i.RCC_ITConfig), (32 bytes).
    Removing stm32f10x_rcc.o(i.RCC_LSEConfig), (52 bytes).
    Removing stm32f10x_rcc.o(i.RCC_LSICmd), (12 bytes).
    Removing stm32f10x_rcc.o(i.RCC_MCOConfig), (12 bytes).
    Removing stm32f10x_rcc.o(i.RCC_RTCCLKCmd), (12 bytes).
    Removing stm32f10x_rcc.o(i.RCC_RTCCLKConfig), (16 bytes).
    Removing stm32f10x_rcc.o(i.RCC_USBCLKConfig), (12 bytes).
    Removing stm32f10x_spi.o(.rev16_text), (4 bytes).
    Removing stm32f10x_spi.o(.revsh_text), (4 bytes).
    Removing stm32f10x_spi.o(.rrx_text), (6 bytes).
    Removing stm32f10x_spi.o(i.I2S_Cmd), (24 bytes).
    Removing stm32f10x_spi.o(i.I2S_Init), (232 bytes).
    Removing stm32f10x_spi.o(i.I2S_StructInit), (20 bytes).
    Removing stm32f10x_spi.o(i.SPI_BiDirectionalLineConfig), (28 bytes).
    Removing stm32f10x_spi.o(i.SPI_CalculateCRC), (24 bytes).
    Removing stm32f10x_spi.o(i.SPI_DataSizeConfig), (18 bytes).
    Removing stm32f10x_spi.o(i.SPI_GetCRC), (16 bytes).
    Removing stm32f10x_spi.o(i.SPI_GetCRCPolynomial), (6 bytes).
    Removing stm32f10x_spi.o(i.SPI_I2S_DeInit), (88 bytes).
    Removing stm32f10x_spi.o(i.SPI_NSSInternalSoftwareConfig), (30 bytes).
    Removing stm32f10x_spi.o(i.SPI_SSOutputCmd), (24 bytes).
    Removing stm32f10x_spi.o(i.SPI_StructInit), (24 bytes).
    Removing stm32f10x_spi.o(i.SPI_TransmitCRC), (10 bytes).
    Removing stm32f10x_tim.o(.rev16_text), (4 bytes).
    Removing stm32f10x_tim.o(.revsh_text), (4 bytes).
    Removing stm32f10x_tim.o(.rrx_text), (6 bytes).
    Removing stm32f10x_tim.o(i.TI1_Config), (128 bytes).
    Removing stm32f10x_tim.o(i.TI2_Config), (152 bytes).
    Removing stm32f10x_tim.o(i.TI3_Config), (144 bytes).
    Removing stm32f10x_tim.o(i.TI4_Config), (152 bytes).
    Removing stm32f10x_tim.o(i.TIM_ARRPreloadConfig), (24 bytes).
    Removing stm32f10x_tim.o(i.TIM_BDTRConfig), (32 bytes).
    Removing stm32f10x_tim.o(i.TIM_BDTRStructInit), (18 bytes).
    Removing stm32f10x_tim.o(i.TIM_CCPreloadControl), (24 bytes).
    Removing stm32f10x_tim.o(i.TIM_CCxCmd), (30 bytes).
    Removing stm32f10x_tim.o(i.TIM_CCxNCmd), (30 bytes).
    Removing stm32f10x_tim.o(i.TIM_ClearFlag), (6 bytes).
    Removing stm32f10x_tim.o(i.TIM_ClearITPendingBit), (6 bytes).
    Removing stm32f10x_tim.o(i.TIM_ClearOC1Ref), (18 bytes).
    Removing stm32f10x_tim.o(i.TIM_ClearOC2Ref), (24 bytes).
    Removing stm32f10x_tim.o(i.TIM_ClearOC3Ref), (18 bytes).
    Removing stm32f10x_tim.o(i.TIM_ClearOC4Ref), (24 bytes).
    Removing stm32f10x_tim.o(i.TIM_CounterModeConfig), (18 bytes).
    Removing stm32f10x_tim.o(i.TIM_CtrlPWMOutputs), (30 bytes).
    Removing stm32f10x_tim.o(i.TIM_DMACmd), (18 bytes).
    Removing stm32f10x_tim.o(i.TIM_DMAConfig), (10 bytes).
    Removing stm32f10x_tim.o(i.TIM_DeInit), (488 bytes).
    Removing stm32f10x_tim.o(i.TIM_ETRClockMode1Config), (54 bytes).
    Removing stm32f10x_tim.o(i.TIM_ETRClockMode2Config), (32 bytes).
    Removing stm32f10x_tim.o(i.TIM_ETRConfig), (28 bytes).
    Removing stm32f10x_tim.o(i.TIM_EncoderInterfaceConfig), (66 bytes).
    Removing stm32f10x_tim.o(i.TIM_ForcedOC1Config), (18 bytes).
    Removing stm32f10x_tim.o(i.TIM_ForcedOC2Config), (26 bytes).
    Removing stm32f10x_tim.o(i.TIM_ForcedOC3Config), (18 bytes).
    Removing stm32f10x_tim.o(i.TIM_ForcedOC4Config), (26 bytes).
    Removing stm32f10x_tim.o(i.TIM_GenerateEvent), (4 bytes).
    Removing stm32f10x_tim.o(i.TIM_GetCapture1), (6 bytes).
    Removing stm32f10x_tim.o(i.TIM_GetCapture2), (6 bytes).
    Removing stm32f10x_tim.o(i.TIM_GetCapture3), (6 bytes).
    Removing stm32f10x_tim.o(i.TIM_GetCapture4), (8 bytes).
    Removing stm32f10x_tim.o(i.TIM_GetCounter), (6 bytes).
    Removing stm32f10x_tim.o(i.TIM_GetFlagStatus), (18 bytes).
    Removing stm32f10x_tim.o(i.TIM_GetITStatus), (34 bytes).
    Removing stm32f10x_tim.o(i.TIM_GetPrescaler), (6 bytes).
    Removing stm32f10x_tim.o(i.TIM_ICInit), (172 bytes).
    Removing stm32f10x_tim.o(i.TIM_ICStructInit), (18 bytes).
    Removing stm32f10x_tim.o(i.TIM_ITConfig), (18 bytes).
    Removing stm32f10x_tim.o(i.TIM_ITRxExternalClockConfig), (24 bytes).
    Removing stm32f10x_tim.o(i.TIM_InternalClockConfig), (12 bytes).
    Removing stm32f10x_tim.o(i.TIM_OC1FastConfig), (18 bytes).
    Removing stm32f10x_tim.o(i.TIM_OC1NPolarityConfig), (18 bytes).
    Removing stm32f10x_tim.o(i.TIM_OC1PolarityConfig), (18 bytes).
    Removing stm32f10x_tim.o(i.TIM_OC2FastConfig), (26 bytes).
    Removing stm32f10x_tim.o(i.TIM_OC2NPolarityConfig), (26 bytes).
    Removing stm32f10x_tim.o(i.TIM_OC2PolarityConfig), (26 bytes).
    Removing stm32f10x_tim.o(i.TIM_OC3FastConfig), (18 bytes).
    Removing stm32f10x_tim.o(i.TIM_OC3NPolarityConfig), (26 bytes).
    Removing stm32f10x_tim.o(i.TIM_OC3PolarityConfig), (26 bytes).
    Removing stm32f10x_tim.o(i.TIM_OC4FastConfig), (26 bytes).
    Removing stm32f10x_tim.o(i.TIM_OC4PolarityConfig), (26 bytes).
    Removing stm32f10x_tim.o(i.TIM_OCStructInit), (20 bytes).
    Removing stm32f10x_tim.o(i.TIM_PWMIConfig), (124 bytes).
    Removing stm32f10x_tim.o(i.TIM_PrescalerConfig), (6 bytes).
    Removing stm32f10x_tim.o(i.TIM_SelectCCDMA), (24 bytes).
    Removing stm32f10x_tim.o(i.TIM_SelectCOM), (24 bytes).
    Removing stm32f10x_tim.o(i.TIM_SelectHallSensor), (24 bytes).
    Removing stm32f10x_tim.o(i.TIM_SelectInputTrigger), (18 bytes).
    Removing stm32f10x_tim.o(i.TIM_SelectMasterSlaveMode), (18 bytes).
    Removing stm32f10x_tim.o(i.TIM_SelectOCxM), (82 bytes).
    Removing stm32f10x_tim.o(i.TIM_SelectOnePulseMode), (18 bytes).
    Removing stm32f10x_tim.o(i.TIM_SelectOutputTrigger), (18 bytes).
    Removing stm32f10x_tim.o(i.TIM_SelectSlaveMode), (18 bytes).
    Removing stm32f10x_tim.o(i.TIM_SetAutoreload), (4 bytes).
    Removing stm32f10x_tim.o(i.TIM_SetClockDivision), (18 bytes).
    Removing stm32f10x_tim.o(i.TIM_SetCompare1), (4 bytes).
    Removing stm32f10x_tim.o(i.TIM_SetCompare2), (4 bytes).
    Removing stm32f10x_tim.o(i.TIM_SetCompare3), (4 bytes).
    Removing stm32f10x_tim.o(i.TIM_SetCompare4), (6 bytes).
    Removing stm32f10x_tim.o(i.TIM_SetCounter), (4 bytes).
    Removing stm32f10x_tim.o(i.TIM_SetIC1Prescaler), (18 bytes).
    Removing stm32f10x_tim.o(i.TIM_SetIC2Prescaler), (26 bytes).
    Removing stm32f10x_tim.o(i.TIM_SetIC3Prescaler), (18 bytes).
    Removing stm32f10x_tim.o(i.TIM_SetIC4Prescaler), (26 bytes).
    Removing stm32f10x_tim.o(i.TIM_TIxExternalClockConfig), (62 bytes).
    Removing stm32f10x_tim.o(i.TIM_TimeBaseStructInit), (18 bytes).
    Removing stm32f10x_tim.o(i.TIM_UpdateDisableConfig), (24 bytes).
    Removing stm32f10x_tim.o(i.TIM_UpdateRequestConfig), (24 bytes).
    Removing stm32f10x_usart.o(.rev16_text), (4 bytes).
    Removing stm32f10x_usart.o(.revsh_text), (4 bytes).
    Removing stm32f10x_usart.o(.rrx_text), (6 bytes).
    Removing stm32f10x_usart.o(i.USART_ClearFlag), (18 bytes).
    Removing stm32f10x_usart.o(i.USART_ClockInit), (34 bytes).
    Removing stm32f10x_usart.o(i.USART_ClockStructInit), (12 bytes).
    Removing stm32f10x_usart.o(i.USART_DeInit), (156 bytes).
    Removing stm32f10x_usart.o(i.USART_HalfDuplexCmd), (24 bytes).
    Removing stm32f10x_usart.o(i.USART_IrDACmd), (24 bytes).
    Removing stm32f10x_usart.o(i.USART_IrDAConfig), (18 bytes).
    Removing stm32f10x_usart.o(i.USART_LINBreakDetectLengthConfig), (18 bytes).
    Removing stm32f10x_usart.o(i.USART_LINCmd), (24 bytes).
    Removing stm32f10x_usart.o(i.USART_OneBitMethodCmd), (24 bytes).
    Removing stm32f10x_usart.o(i.USART_OverSampling8Cmd), (22 bytes).
    Removing stm32f10x_usart.o(i.USART_ReceiverWakeUpCmd), (24 bytes).
    Removing stm32f10x_usart.o(i.USART_SendBreak), (10 bytes).
    Removing stm32f10x_usart.o(i.USART_SetAddress), (18 bytes).
    Removing stm32f10x_usart.o(i.USART_SetGuardTime), (16 bytes).
    Removing stm32f10x_usart.o(i.USART_SetPrescaler), (16 bytes).
    Removing stm32f10x_usart.o(i.USART_SmartCardCmd), (24 bytes).
    Removing stm32f10x_usart.o(i.USART_SmartCardNACKCmd), (24 bytes).
    Removing stm32f10x_usart.o(i.USART_StructInit), (24 bytes).
    Removing stm32f10x_usart.o(i.USART_WakeUpConfig), (18 bytes).
    Removing system_stm32f10x.o(.rev16_text), (4 bytes).
    Removing system_stm32f10x.o(.revsh_text), (4 bytes).
    Removing system_stm32f10x.o(.rrx_text), (6 bytes).
    Removing system_stm32f10x.o(i.SystemCoreClockUpdate), (164 bytes).
    Removing system_stm32f10x.o(.data), (20 bytes).
    Removing dscalb.o(.text), (46 bytes).
    Removing i2c.o(.ARM.exidx), (8 bytes).
    Removing i2c.o(.ARM.exidx), (8 bytes).
    Removing i2c.o(.ARM.exidx), (8 bytes).
    Removing i2c.o(.ARM.exidx), (8 bytes).
    Removing i2c.o(.ARM.exidx), (8 bytes).
    Removing i2c.o(.ARM.exidx), (8 bytes).
    Removing usart.o(.ARM.exidx), (8 bytes).
    Removing usart.o(.ARM.exidx), (8 bytes).
    Removing usart.o(.ARM.exidx), (8 bytes).
    Removing usart.o(.ARM.exidx), (8 bytes).
    Removing usart.o(.ARM.exidx), (8 bytes).
    Removing usart.o(.ARM.exidx), (8 bytes).
    Removing usart.o(t._ZN10FIFOBufferIhLt128EE5ClearEv), (14 bytes).
    Removing usart.o(.ARM.exidx), (8 bytes).
    Removing spi.o(.ARM.exidx), (8 bytes).
    Removing spi.o(.ARM.exidx), (8 bytes).
    Removing spi.o(.ARM.exidx), (8 bytes).
    Removing spi.o(.ARM.exidx), (8 bytes).
    Removing spi.o(.ARM.exidx), (8 bytes).
    Removing spi.o(.ARM.exidx), (8 bytes).
    Removing spi.o(.ARM.exidx), (8 bytes).
    Removing nrf24l01.o(.ARM.exidx), (8 bytes).
    Removing nrf24l01.o(.ARM.exidx), (8 bytes).
    Removing nrf24l01.o(.ARM.exidx), (8 bytes).
    Removing nrf24l01.o(.ARM.exidx), (8 bytes).
    Removing hmc5883l.o(.ARM.exidx), (8 bytes).
    Removing mpu6050.o(.ARM.exidx), (8 bytes).
    Removing mpu6050.o(.ARM.exidx), (8 bytes).
    Removing attitude.o(.ARM.exidx), (8 bytes).
    Removing attitude.o(.ARM.exidx), (8 bytes).
    Removing attitude.o(.ARM.exidx), (8 bytes).
    Removing control.o(.ARM.exidx), (8 bytes).

684 unused section(s) (total 23785 bytes) removed from the image.

==============================================================================

Image Symbol Table

    Local Symbols

    Symbol Name                              Value     Ov Type        Size  Object(Section)

    ../../../edgfe/lib_src/guard.c           0x00000000   Number         0  cxa_guard_acquire.o ABSOLUTE
    ../../../edgfe/lib_src/guard.c           0x00000000   Number         0  cxa_guard_release.o ABSOLUTE
    ../clib/microlib/cpp/cpp_dtor.c          0x00000000   Number         0  cpp_dtor.o ABSOLUTE
    ../clib/microlib/cpp/cpp_final.c         0x00000000   Number         0  cpp_final.o ABSOLUTE
    ../clib/microlib/cpp/cpp_init.c          0x00000000   Number         0  cpp_init.o ABSOLUTE
    ../clib/microlib/cpp/cpp_init.c          0x00000000   Number         0  cpp_init.o ABSOLUTE
    ../clib/microlib/errno.c                 0x00000000   Number         0  errno.o ABSOLUTE
    ../clib/microlib/init/entry.s            0x00000000   Number         0  entry8a.o ABSOLUTE
    ../clib/microlib/init/entry.s            0x00000000   Number         0  entry2.o ABSOLUTE
    ../clib/microlib/init/entry.s            0x00000000   Number         0  entry.o ABSOLUTE
    ../clib/microlib/init/entry.s            0x00000000   Number         0  entry11b.o ABSOLUTE
    ../clib/microlib/init/entry.s            0x00000000   Number         0  entry11a.o ABSOLUTE
    ../clib/microlib/init/entry.s            0x00000000   Number         0  entry10b.o ABSOLUTE
    ../clib/microlib/init/entry.s            0x00000000   Number         0  entry10a.o ABSOLUTE
    ../clib/microlib/init/entry.s            0x00000000   Number         0  entry9b.o ABSOLUTE
    ../clib/microlib/init/entry.s            0x00000000   Number         0  entry9a.o ABSOLUTE
    ../clib/microlib/init/entry.s            0x00000000   Number         0  entry8b.o ABSOLUTE
    ../clib/microlib/init/entry.s            0x00000000   Number         0  entry7b.o ABSOLUTE
    ../clib/microlib/init/entry.s            0x00000000   Number         0  entry7a.o ABSOLUTE
    ../clib/microlib/init/entry.s            0x00000000   Number         0  entry5.o ABSOLUTE
    ../clib/microlib/longlong.c              0x00000000   Number         0  llsshr.o ABSOLUTE
    ../clib/microlib/longlong.c              0x00000000   Number         0  llushr.o ABSOLUTE
    ../clib/microlib/longlong.c              0x00000000   Number         0  llshl.o ABSOLUTE
    ../clib/microlib/malloc/malloc.c         0x00000000   Number         0  mallocra.o ABSOLUTE
    ../clib/microlib/malloc/malloc.c         0x00000000   Number         0  malloca.o ABSOLUTE
    ../clib/microlib/malloc/malloc.c         0x00000000   Number         0  mallocr.o ABSOLUTE
    ../clib/microlib/malloc/malloc.c         0x00000000   Number         0  malloc.o ABSOLUTE
    ../clib/microlib/malloc/mvars.c          0x00000000   Number         0  mvars.o ABSOLUTE
    ../clib/microlib/string/memcpy.c         0x00000000   Number         0  memcpyb.o ABSOLUTE
    ../clib/microlib/string/memcpy.c         0x00000000   Number         0  memcpya.o ABSOLUTE
    ../clib/microlib/string/memset.c         0x00000000   Number         0  memseta.o ABSOLUTE
    ../clib/microlib/stubs.s                 0x00000000   Number         0  iusefp.o ABSOLUTE
    ../clib/stdlib.c                         0x00000000   Number         0  cxa_finalize.o ABSOLUTE
    ../clib/stdlib.c                         0x00000000   Number         0  aeabi_atexit.o ABSOLUTE
    ../fplib/microlib/d2f.c                  0x00000000   Number         0  d2f.o ABSOLUTE
    ../fplib/microlib/f2d.c                  0x00000000   Number         0  f2d.o ABSOLUTE
    ../fplib/microlib/fpadd.c                0x00000000   Number         0  fadd.o ABSOLUTE
    ../fplib/microlib/fpadd.c                0x00000000   Number         0  dadd.o ABSOLUTE
    ../fplib/microlib/fpdiv.c                0x00000000   Number         0  ddiv.o ABSOLUTE
    ../fplib/microlib/fpdiv.c                0x00000000   Number         0  fdiv.o ABSOLUTE
    ../fplib/microlib/fpepilogue.c           0x00000000   Number         0  fepilogue.o ABSOLUTE
    ../fplib/microlib/fpepilogue.c           0x00000000   Number         0  depilogue.o ABSOLUTE
    ../fplib/microlib/fpfix.c                0x00000000   Number         0  dfixui.o ABSOLUTE
    ../fplib/microlib/fpfix.c                0x00000000   Number         0  dfixi.o ABSOLUTE
    ../fplib/microlib/fpfix.c                0x00000000   Number         0  ffixui.o ABSOLUTE
    ../fplib/microlib/fpfix.c                0x00000000   Number         0  ffixi.o ABSOLUTE
    ../fplib/microlib/fpflt.c                0x00000000   Number         0  ffltui.o ABSOLUTE
    ../fplib/microlib/fpflt.c                0x00000000   Number         0  fflti.o ABSOLUTE
    ../fplib/microlib/fpflt.c                0x00000000   Number         0  dflti.o ABSOLUTE
    ../fplib/microlib/fpflt.c                0x00000000   Number         0  dfltui.o ABSOLUTE
    ../fplib/microlib/fpmul.c                0x00000000   Number         0  dmul.o ABSOLUTE
    ../fplib/microlib/fpmul.c                0x00000000   Number         0  fmul.o ABSOLUTE
    ../fplib/microlib/fprnd.c                0x00000000   Number         0  frnd.o ABSOLUTE
    ../fplib/microlib/fpscalb.c              0x00000000   Number         0  fscalb.o ABSOLUTE
    ../fplib/microlib/fpscalb.c              0x00000000   Number         0  dscalb.o ABSOLUTE
    ../fplib/microlib/fpsqrt.c               0x00000000   Number         0  fsqrt.o ABSOLUTE
    ../mathlib/asinf.c                       0x00000000   Number         0  asinf_x.o ABSOLUTE
    ../mathlib/asinf.c                       0x00000000   Number         0  asinf.o ABSOLUTE
    ../mathlib/atan.c                        0x00000000   Number         0  atan.o ABSOLUTE
    ../mathlib/atan.c                        0x00000000   Number         0  atan_x.o ABSOLUTE
    ../mathlib/atan2.c                       0x00000000   Number         0  atan2.o ABSOLUTE
    ../mathlib/atan2.c                       0x00000000   Number         0  atan2_x.o ABSOLUTE
    ../mathlib/atan2f.c                      0x00000000   Number         0  atan2f.o ABSOLUTE
    ../mathlib/atan2f.c                      0x00000000   Number         0  atan2f_x.o ABSOLUTE
    ../mathlib/cosf.c                        0x00000000   Number         0  cosf.o ABSOLUTE
    ../mathlib/cosf.c                        0x00000000   Number         0  cosf_x.o ABSOLUTE
    ../mathlib/dunder.c                      0x00000000   Number         0  dunder.o ABSOLUTE
    ../mathlib/fpclassify.c                  0x00000000   Number         0  fpclassify.o ABSOLUTE
    ../mathlib/fpclassifyf.c                 0x00000000   Number         0  fpclassifyf.o ABSOLUTE
    ../mathlib/funder.c                      0x00000000   Number         0  funder.o ABSOLUTE
    ../mathlib/poly.c                        0x00000000   Number         0  poly.o ABSOLUTE
    ../mathlib/qnan.c                        0x00000000   Number         0  qnan.o ABSOLUTE
    ../mathlib/rredf.c                       0x00000000   Number         0  rredf.o ABSOLUTE
    ../mathlib/sinf.c                        0x00000000   Number         0  sinf.o ABSOLUTE
    ../mathlib/sinf.c                        0x00000000   Number         0  sinf_x.o ABSOLUTE
    ../mathlib/sqrtf.c                       0x00000000   Number         0  sqrtf.o ABSOLUTE
    ../mathlib/sqrtf.c                       0x00000000   Number         0  sqrtf_x.o ABSOLUTE
    B:\Keil_v5\ARM\PACK\Keil\STM32F1xx_DFP\2.0.0\Device\StdPeriph_Driver\src\misc.c 0x00000000   Number         0  misc.o ABSOLUTE
    B:\Keil_v5\ARM\PACK\Keil\STM32F1xx_DFP\2.0.0\Device\StdPeriph_Driver\src\stm32f10x_dma.c 0x00000000   Number         0  stm32f10x_dma.o ABSOLUTE
    B:\Keil_v5\ARM\PACK\Keil\STM32F1xx_DFP\2.0.0\Device\StdPeriph_Driver\src\stm32f10x_exti.c 0x00000000   Number         0  stm32f10x_exti.o ABSOLUTE
    B:\Keil_v5\ARM\PACK\Keil\STM32F1xx_DFP\2.0.0\Device\StdPeriph_Driver\src\stm32f10x_flash.c 0x00000000   Number         0  stm32f10x_flash.o ABSOLUTE
    B:\Keil_v5\ARM\PACK\Keil\STM32F1xx_DFP\2.0.0\Device\StdPeriph_Driver\src\stm32f10x_gpio.c 0x00000000   Number         0  stm32f10x_gpio.o ABSOLUTE
    B:\Keil_v5\ARM\PACK\Keil\STM32F1xx_DFP\2.0.0\Device\StdPeriph_Driver\src\stm32f10x_i2c.c 0x00000000   Number         0  stm32f10x_i2c.o ABSOLUTE
    B:\Keil_v5\ARM\PACK\Keil\STM32F1xx_DFP\2.0.0\Device\StdPeriph_Driver\src\stm32f10x_rcc.c 0x00000000   Number         0  stm32f10x_rcc.o ABSOLUTE
    B:\Keil_v5\ARM\PACK\Keil\STM32F1xx_DFP\2.0.0\Device\StdPeriph_Driver\src\stm32f10x_spi.c 0x00000000   Number         0  stm32f10x_spi.o ABSOLUTE
    B:\Keil_v5\ARM\PACK\Keil\STM32F1xx_DFP\2.0.0\Device\StdPeriph_Driver\src\stm32f10x_tim.c 0x00000000   Number         0  stm32f10x_tim.o ABSOLUTE
    B:\Keil_v5\ARM\PACK\Keil\STM32F1xx_DFP\2.0.0\Device\StdPeriph_Driver\src\stm32f10x_usart.c 0x00000000   Number         0  stm32f10x_usart.o ABSOLUTE
    B:\\Keil_v5\\ARM\\PACK\\Keil\\STM32F1xx_DFP\\2.0.0\\Device\\StdPeriph_Driver\\src\\misc.c 0x00000000   Number         0  misc.o ABSOLUTE
    B:\\Keil_v5\\ARM\\PACK\\Keil\\STM32F1xx_DFP\\2.0.0\\Device\\StdPeriph_Driver\\src\\stm32f10x_dma.c 0x00000000   Number         0  stm32f10x_dma.o ABSOLUTE
    B:\\Keil_v5\\ARM\\PACK\\Keil\\STM32F1xx_DFP\\2.0.0\\Device\\StdPeriph_Driver\\src\\stm32f10x_exti.c 0x00000000   Number         0  stm32f10x_exti.o ABSOLUTE
    B:\\Keil_v5\\ARM\\PACK\\Keil\\STM32F1xx_DFP\\2.0.0\\Device\\StdPeriph_Driver\\src\\stm32f10x_flash.c 0x00000000   Number         0  stm32f10x_flash.o ABSOLUTE
    B:\\Keil_v5\\ARM\\PACK\\Keil\\STM32F1xx_DFP\\2.0.0\\Device\\StdPeriph_Driver\\src\\stm32f10x_gpio.c 0x00000000   Number         0  stm32f10x_gpio.o ABSOLUTE
    B:\\Keil_v5\\ARM\\PACK\\Keil\\STM32F1xx_DFP\\2.0.0\\Device\\StdPeriph_Driver\\src\\stm32f10x_i2c.c 0x00000000   Number         0  stm32f10x_i2c.o ABSOLUTE
    B:\\Keil_v5\\ARM\\PACK\\Keil\\STM32F1xx_DFP\\2.0.0\\Device\\StdPeriph_Driver\\src\\stm32f10x_rcc.c 0x00000000   Number         0  stm32f10x_rcc.o ABSOLUTE
    B:\\Keil_v5\\ARM\\PACK\\Keil\\STM32F1xx_DFP\\2.0.0\\Device\\StdPeriph_Driver\\src\\stm32f10x_spi.c 0x00000000   Number         0  stm32f10x_spi.o ABSOLUTE
    B:\\Keil_v5\\ARM\\PACK\\Keil\\STM32F1xx_DFP\\2.0.0\\Device\\StdPeriph_Driver\\src\\stm32f10x_tim.c 0x00000000   Number         0  stm32f10x_tim.o ABSOLUTE
    B:\\Keil_v5\\ARM\\PACK\\Keil\\STM32F1xx_DFP\\2.0.0\\Device\\StdPeriph_Driver\\src\\stm32f10x_usart.c 0x00000000   Number         0  stm32f10x_usart.o ABSOLUTE
    IMU\CRC.cpp                              0x00000000   Number         0  crc.o ABSOLUTE
    IMU\HMC5883L.cpp                         0x00000000   Number         0  hmc5883l.o ABSOLUTE
    IMU\IMU.cpp                              0x00000000   Number         0  imu.o ABSOLUTE
    IMU\\HMC5883L.cpp                        0x00000000   Number         0  hmc5883l.o ABSOLUTE
    IMU\\IMU.cpp                             0x00000000   Number         0  imu.o ABSOLUTE
    IMU\\mpu6050.cpp                         0x00000000   Number         0  mpu6050.o ABSOLUTE
    IMU\attitude.cpp                         0x00000000   Number         0  attitude.o ABSOLUTE
    IMU\mpu6050.cpp                          0x00000000   Number         0  mpu6050.o ABSOLUTE
    Lib\Communication.cpp                    0x00000000   Number         0  communication.o ABSOLUTE
    Lib\Control.cpp                          0x00000000   Number         0  control.o ABSOLUTE
    Lib\Delay.cpp                            0x00000000   Number         0  delay.o ABSOLUTE
    Lib\F103_PWM.cpp                         0x00000000   Number         0  f103_pwm.o ABSOLUTE
    Lib\Flash.cpp                            0x00000000   Number         0  flash.o ABSOLUTE
    Lib\GPIO.cpp                             0x00000000   Number         0  gpio.o ABSOLUTE
    Lib\I2C.cpp                              0x00000000   Number         0  i2c.o ABSOLUTE
    Lib\Interrupt.cpp                        0x00000000   Number         0  interrupt.o ABSOLUTE
    Lib\LED.cpp                              0x00000000   Number         0  led.o ABSOLUTE
    Lib\NRF24L01.cpp                         0x00000000   Number         0  nrf24l01.o ABSOLUTE
    Lib\SPI.cpp                              0x00000000   Number         0  spi.o ABSOLUTE
    Lib\TaskManager.cpp                      0x00000000   Number         0  taskmanager.o ABSOLUTE
    Lib\Timer.cpp                            0x00000000   Number         0  timer.o ABSOLUTE
    Lib\USART.cpp                            0x00000000   Number         0  usart.o ABSOLUTE
    Lib\\Communication.cpp                   0x00000000   Number         0  communication.o ABSOLUTE
    Lib\\Control.cpp                         0x00000000   Number         0  control.o ABSOLUTE
    Lib\\Delay.cpp                           0x00000000   Number         0  delay.o ABSOLUTE
    Lib\\F103_PWM.cpp                        0x00000000   Number         0  f103_pwm.o ABSOLUTE
    Lib\\Flash.cpp                           0x00000000   Number         0  flash.o ABSOLUTE
    Lib\\GPIO.cpp                            0x00000000   Number         0  gpio.o ABSOLUTE
    Lib\\I2C.cpp                             0x00000000   Number         0  i2c.o ABSOLUTE
    Lib\\Interrupt.cpp                       0x00000000   Number         0  interrupt.o ABSOLUTE
    Lib\\LED.cpp                             0x00000000   Number         0  led.o ABSOLUTE
    Lib\\NRF24L01.cpp                        0x00000000   Number         0  nrf24l01.o ABSOLUTE
    Lib\\SPI.cpp                             0x00000000   Number         0  spi.o ABSOLUTE
    Lib\\TaskManager.cpp                     0x00000000   Number         0  taskmanager.o ABSOLUTE
    Lib\\Timer.cpp                           0x00000000   Number         0  timer.o ABSOLUTE
    Lib\\USART.cpp                           0x00000000   Number         0  usart.o ABSOLUTE
    Lib\\eeprom.cpp                          0x00000000   Number         0  eeprom.o ABSOLUTE
    Lib\eeprom.cpp                           0x00000000   Number         0  eeprom.o ABSOLUTE
    Moto_PWM.cpp                             0x00000000   Number         0  moto_pwm.o ABSOLUTE
    Moto_PWM.cpp                             0x00000000   Number         0  moto_pwm.o ABSOLUTE
    RTE\Device\STM32F103C8\startup_stm32f10x_md.s 0x00000000   Number         0  startup_stm32f10x_md.o ABSOLUTE
    RTE\Device\STM32F103C8\system_stm32f10x.c 0x00000000   Number         0  system_stm32f10x.o ABSOLUTE
    RTE\\Device\\STM32F103C8\\system_stm32f10x.c 0x00000000   Number         0  system_stm32f10x.o ABSOLUTE
    cdcmple.s                                0x00000000   Number         0  cdcmple.o ABSOLUTE
    cdrcmple.s                               0x00000000   Number         0  cdrcmple.o ABSOLUTE
    cfcmple.s                                0x00000000   Number         0  cfcmple.o ABSOLUTE
    cfrcmple.s                               0x00000000   Number         0  cfrcmple.o ABSOLUTE
    dc.s                                     0x00000000   Number         0  dc.o ABSOLUTE
    handlers.s                               0x00000000   Number         0  handlers.o ABSOLUTE
    init.s                                   0x00000000   Number         0  init.o ABSOLUTE
    main.cpp                                 0x00000000   Number         0  main.o ABSOLUTE
    main.cpp                                 0x00000000   Number         0  main.o ABSOLUTE
    RESET                                    0x08000000   Section      236  startup_stm32f10x_md.o(RESET)
    .ARM.Collect$$$$00000000                 0x080000ec   Section        0  entry.o(.ARM.Collect$$$$00000000)
    .ARM.Collect$$$$00000001                 0x080000ec   Section        4  entry2.o(.ARM.Collect$$$$00000001)
    .ARM.Collect$$$$00000004                 0x080000f0   Section        4  entry5.o(.ARM.Collect$$$$00000004)
    .ARM.Collect$$$$00000008                 0x080000f4   Section        0  entry7b.o(.ARM.Collect$$$$00000008)
    .ARM.Collect$$$$00000009                 0x080000f4   Section        4  entry8a.o(.ARM.Collect$$$$00000009)
    .ARM.Collect$$$$0000000A                 0x080000f8   Section        0  entry8b.o(.ARM.Collect$$$$0000000A)
    .ARM.Collect$$$$0000000B                 0x080000f8   Section        8  entry9a.o(.ARM.Collect$$$$0000000B)
    .ARM.Collect$$$$0000000D                 0x08000100   Section        0  entry10a.o(.ARM.Collect$$$$0000000D)
    .ARM.Collect$$$$0000000E                 0x08000100   Section        4  entry10b.o(.ARM.Collect$$$$0000000E)
    .ARM.Collect$$$$0000000F                 0x08000104   Section        0  entry11a.o(.ARM.Collect$$$$0000000F)
    .ARM.Collect$$$$00002712                 0x08000104   Section        4  entry2.o(.ARM.Collect$$$$00002712)
    __lit__00000000                          0x08000104   Data           4  entry2.o(.ARM.Collect$$$$00002712)
    .text                                    0x08000108   Section       36  startup_stm32f10x_md.o(.text)
    .text                                    0x0800012c   Section        0  memcpya.o(.text)
    .text                                    0x08000150   Section        0  memseta.o(.text)
    .text                                    0x08000174   Section        0  cpp_init.o(.text)
    .text                                    0x08000194   Section        0  aeabi_atexit.o(.text)
    .text                                    0x080001c2   Section        0  fadd.o(.text)
    .text                                    0x08000272   Section        0  fmul.o(.text)
    .text                                    0x080002d6   Section        0  fdiv.o(.text)
    .text                                    0x08000352   Section        0  dadd.o(.text)
    .text                                    0x080004a0   Section        0  dmul.o(.text)
    .text                                    0x08000584   Section        0  ddiv.o(.text)
    .text                                    0x08000662   Section        0  fflti.o(.text)
    .text                                    0x08000674   Section        0  ffltui.o(.text)
    .text                                    0x0800067e   Section        0  dflti.o(.text)
    .text                                    0x080006a0   Section        0  dfltui.o(.text)
    .text                                    0x080006ba   Section        0  ffixi.o(.text)
    .text                                    0x080006ec   Section        0  ffixui.o(.text)
    .text                                    0x08000714   Section        0  dfixi.o(.text)
    .text                                    0x08000752   Section        0  dfixui.o(.text)
    .text                                    0x08000784   Section        0  f2d.o(.text)
    .text                                    0x080007ac   Section       48  cdcmple.o(.text)
    .text                                    0x080007dc   Section       48  cdrcmple.o(.text)
    .text                                    0x0800080c   Section        0  d2f.o(.text)
    .text                                    0x08000844   Section       20  cfcmple.o(.text)
    .text                                    0x08000858   Section       20  cfrcmple.o(.text)
    .text                                    0x0800086c   Section        0  llshl.o(.text)
    .text                                    0x0800088a   Section        0  llushr.o(.text)
    .text                                    0x080008aa   Section        0  llsshr.o(.text)
    .text                                    0x080008ce   Section        0  iusefp.o(.text)
    .text                                    0x080008d0   Section        0  cpp_dtor.o(.text)
    .text                                    0x080008d8   Section        0  cxa_finalize.o(.text)
    .text                                    0x0800091a   Section        0  fepilogue.o(.text)
    .text                                    0x08000988   Section        0  fscalb.o(.text)
    .text                                    0x080009a0   Section        0  fsqrt.o(.text)
    .text                                    0x080009fe   Section        0  frnd.o(.text)
    .text                                    0x08000a3a   Section        0  depilogue.o(.text)
    .text                                    0x08000af4   Section       36  init.o(.text)
    .text                                    0x08000b18   Section        0  cpp_final.o(.text)
    i.DMA1_Channel2_IRQHandler               0x08000b1c   Section        0  interrupt.o(i.DMA1_Channel2_IRQHandler)
    i.DMA1_Channel4_IRQHandler               0x08000b34   Section        0  interrupt.o(i.DMA1_Channel4_IRQHandler)
    i.DMA1_Channel5_IRQHandler               0x08000b5c   Section        0  interrupt.o(i.DMA1_Channel5_IRQHandler)
    i.DMA1_Channel6_IRQHandler               0x08000b74   Section        0  interrupt.o(i.DMA1_Channel6_IRQHandler)
    i.DMA1_Channel7_IRQHandler               0x08000b8c   Section        0  interrupt.o(i.DMA1_Channel7_IRQHandler)
    i.DMA_ClearFlag                          0x08000bb4   Section        0  stm32f10x_dma.o(i.DMA_ClearFlag)
    i.DMA_ClearITPendingBit                  0x08000bd0   Section        0  stm32f10x_dma.o(i.DMA_ClearITPendingBit)
    i.DMA_Cmd                                0x08000bec   Section        0  stm32f10x_dma.o(i.DMA_Cmd)
    i.DMA_DeInit                             0x08000c04   Section        0  stm32f10x_dma.o(i.DMA_DeInit)
    i.DMA_GetCurrDataCounter                 0x08000d50   Section        0  stm32f10x_dma.o(i.DMA_GetCurrDataCounter)
    i.DMA_GetFlagStatus                      0x08000d58   Section        0  stm32f10x_dma.o(i.DMA_GetFlagStatus)
    i.DMA_ITConfig                           0x08000d84   Section        0  stm32f10x_dma.o(i.DMA_ITConfig)
    i.DMA_Init                               0x08000d96   Section        0  stm32f10x_dma.o(i.DMA_Init)
    i.EXTI2_IRQHandler                       0x08000dd4   Section        0  interrupt.o(i.EXTI2_IRQHandler)
    i.EXTI_ClearITPendingBit                 0x08000de4   Section        0  stm32f10x_exti.o(i.EXTI_ClearITPendingBit)
    i.EXTI_GetITStatus                       0x08000df0   Section        0  stm32f10x_exti.o(i.EXTI_GetITStatus)
    i.EXTI_Init                              0x08000e18   Section        0  stm32f10x_exti.o(i.EXTI_Init)
    i.GPIO_EXTILineConfig                    0x08000eac   Section        0  stm32f10x_gpio.o(i.GPIO_EXTILineConfig)
    i.GPIO_Init                              0x08000eec   Section        0  stm32f10x_gpio.o(i.GPIO_Init)
    i.GPIO_PinRemapConfig                    0x08001004   Section        0  stm32f10x_gpio.o(i.GPIO_PinRemapConfig)
    i.GPIO_ReadInputDataBit                  0x08001094   Section        0  stm32f10x_gpio.o(i.GPIO_ReadInputDataBit)
    i.GPIO_ResetBits                         0x080010a6   Section        0  stm32f10x_gpio.o(i.GPIO_ResetBits)
    i.GPIO_SetBits                           0x080010aa   Section        0  stm32f10x_gpio.o(i.GPIO_SetBits)
    i.I2C1_ER_IRQHandler                     0x080010b0   Section        0  interrupt.o(i.I2C1_ER_IRQHandler)
    i.I2C1_EV_IRQHandler                     0x080010c8   Section        0  interrupt.o(i.I2C1_EV_IRQHandler)
    i.I2C2_ER_IRQHandler                     0x080010e0   Section        0  interrupt.o(i.I2C2_ER_IRQHandler)
    i.I2C2_EV_IRQHandler                     0x080010f8   Section        0  interrupt.o(i.I2C2_EV_IRQHandler)
    i.I2C_AcknowledgeConfig                  0x08001110   Section        0  stm32f10x_i2c.o(i.I2C_AcknowledgeConfig)
    i.I2C_GenerateSTART                      0x08001128   Section        0  stm32f10x_i2c.o(i.I2C_GenerateSTART)
    i.I2C_GenerateSTOP                       0x08001140   Section        0  stm32f10x_i2c.o(i.I2C_GenerateSTOP)
    i.I2C_GetFlagStatus                      0x08001158   Section        0  stm32f10x_i2c.o(i.I2C_GetFlagStatus)
    i.I2C_GetLastEvent                       0x08001192   Section        0  stm32f10x_i2c.o(i.I2C_GetLastEvent)
    i.I2C_Init                               0x080011ac   Section        0  stm32f10x_i2c.o(i.I2C_Init)
    i.I2C_ReceiveData                        0x08001298   Section        0  stm32f10x_i2c.o(i.I2C_ReceiveData)
    i.I2C_Send7bitAddress                    0x080012a0   Section        0  stm32f10x_i2c.o(i.I2C_Send7bitAddress)
    i.I2C_SendData                           0x080012b2   Section        0  stm32f10x_i2c.o(i.I2C_SendData)
    i.NVIC_Init                              0x080012b8   Section        0  misc.o(i.NVIC_Init)
    i.NVIC_PriorityGroupConfig               0x08001328   Section        0  misc.o(i.NVIC_PriorityGroupConfig)
    i.RCC_AHBPeriphClockCmd                  0x0800133c   Section        0  stm32f10x_rcc.o(i.RCC_AHBPeriphClockCmd)
    i.RCC_APB1PeriphClockCmd                 0x0800135c   Section        0  stm32f10x_rcc.o(i.RCC_APB1PeriphClockCmd)
    i.RCC_APB1PeriphResetCmd                 0x0800137c   Section        0  stm32f10x_rcc.o(i.RCC_APB1PeriphResetCmd)
    i.RCC_APB2PeriphClockCmd                 0x0800139c   Section        0  stm32f10x_rcc.o(i.RCC_APB2PeriphClockCmd)
    i.RCC_DeInit                             0x080013bc   Section        0  stm32f10x_rcc.o(i.RCC_DeInit)
    i.RCC_GetClocksFreq                      0x08001408   Section        0  stm32f10x_rcc.o(i.RCC_GetClocksFreq)
    i.RCC_GetFlagStatus                      0x080014dc   Section        0  stm32f10x_rcc.o(i.RCC_GetFlagStatus)
    i.RCC_GetSYSCLKSource                    0x08001518   Section        0  stm32f10x_rcc.o(i.RCC_GetSYSCLKSource)
    i.RCC_HCLKConfig                         0x08001528   Section        0  stm32f10x_rcc.o(i.RCC_HCLKConfig)
    i.RCC_HSEConfig                          0x08001540   Section        0  stm32f10x_rcc.o(i.RCC_HSEConfig)
    i.RCC_PCLK1Config                        0x0800158c   Section        0  stm32f10x_rcc.o(i.RCC_PCLK1Config)
    i.RCC_PCLK2Config                        0x080015a4   Section        0  stm32f10x_rcc.o(i.RCC_PCLK2Config)
    i.RCC_PLLCmd                             0x080015bc   Section        0  stm32f10x_rcc.o(i.RCC_PLLCmd)
    i.RCC_PLLConfig                          0x080015c8   Section        0  stm32f10x_rcc.o(i.RCC_PLLConfig)
    i.RCC_SYSCLKConfig                       0x080015e4   Section        0  stm32f10x_rcc.o(i.RCC_SYSCLKConfig)
    i.RCC_WaitForHSEStartUp                  0x080015fc   Section        0  stm32f10x_rcc.o(i.RCC_WaitForHSEStartUp)
    i.SPI1_IRQHandler                        0x08001634   Section        0  interrupt.o(i.SPI1_IRQHandler)
    i.SPI2_IRQHandler                        0x0800164c   Section        0  interrupt.o(i.SPI2_IRQHandler)
    i.SPI_Cmd                                0x08001664   Section        0  stm32f10x_spi.o(i.SPI_Cmd)
    i.SPI_I2S_ClearFlag                      0x0800167c   Section        0  stm32f10x_spi.o(i.SPI_I2S_ClearFlag)
    i.SPI_I2S_ClearITPendingBit              0x08001682   Section        0  stm32f10x_spi.o(i.SPI_I2S_ClearITPendingBit)
    i.SPI_I2S_DMACmd                         0x08001696   Section        0  stm32f10x_spi.o(i.SPI_I2S_DMACmd)
    i.SPI_I2S_GetFlagStatus                  0x080016a8   Section        0  stm32f10x_spi.o(i.SPI_I2S_GetFlagStatus)
    i.SPI_I2S_GetITStatus                    0x080016ba   Section        0  stm32f10x_spi.o(i.SPI_I2S_GetITStatus)
    i.SPI_I2S_ITConfig                       0x080016ee   Section        0  stm32f10x_spi.o(i.SPI_I2S_ITConfig)
    i.SPI_I2S_ReceiveData                    0x0800170e   Section        0  stm32f10x_spi.o(i.SPI_I2S_ReceiveData)
    i.SPI_I2S_SendData                       0x08001714   Section        0  stm32f10x_spi.o(i.SPI_I2S_SendData)
    i.SPI_Init                               0x08001718   Section        0  stm32f10x_spi.o(i.SPI_Init)
    i.SetSysClock                            0x08001754   Section        0  system_stm32f10x.o(i.SetSysClock)
    SetSysClock                              0x08001755   Thumb Code     8  system_stm32f10x.o(i.SetSysClock)
    i.SetSysClockTo72                        0x0800175c   Section        0  system_stm32f10x.o(i.SetSysClockTo72)
    SetSysClockTo72                          0x0800175d   Thumb Code   214  system_stm32f10x.o(i.SetSysClockTo72)
    i.SysTick_Handler                        0x0800183c   Section        0  taskmanager.o(i.SysTick_Handler)
    i.SystemInit                             0x0800185c   Section        0  system_stm32f10x.o(i.SystemInit)
    i.TIM_Cmd                                0x080018bc   Section        0  stm32f10x_tim.o(i.TIM_Cmd)
    i.TIM_OC1Init                            0x080018d4   Section        0  stm32f10x_tim.o(i.TIM_OC1Init)
    i.TIM_OC1PreloadConfig                   0x0800196c   Section        0  stm32f10x_tim.o(i.TIM_OC1PreloadConfig)
    i.TIM_OC2Init                            0x08001980   Section        0  stm32f10x_tim.o(i.TIM_OC2Init)
    i.TIM_OC2PreloadConfig                   0x08001a24   Section        0  stm32f10x_tim.o(i.TIM_OC2PreloadConfig)
    i.TIM_OC3Init                            0x08001a40   Section        0  stm32f10x_tim.o(i.TIM_OC3Init)
    i.TIM_OC3PreloadConfig                   0x08001ae0   Section        0  stm32f10x_tim.o(i.TIM_OC3PreloadConfig)
    i.TIM_OC4Init                            0x08001af4   Section        0  stm32f10x_tim.o(i.TIM_OC4Init)
    i.TIM_OC4PreloadConfig                   0x08001b70   Section        0  stm32f10x_tim.o(i.TIM_OC4PreloadConfig)
    i.TIM_TimeBaseInit                       0x08001b8c   Section        0  stm32f10x_tim.o(i.TIM_TimeBaseInit)
    i.USART1_IRQHandler                      0x08001c30   Section        0  interrupt.o(i.USART1_IRQHandler)
    i.USART2_IRQHandler                      0x08001c48   Section        0  interrupt.o(i.USART2_IRQHandler)
    i.USART3_IRQHandler                      0x08001c60   Section        0  interrupt.o(i.USART3_IRQHandler)
    i.USART_ClearITPendingBit                0x08001c78   Section        0  stm32f10x_usart.o(i.USART_ClearITPendingBit)
    i.USART_Cmd                              0x08001c96   Section        0  stm32f10x_usart.o(i.USART_Cmd)
    i.USART_DMACmd                           0x08001cae   Section        0  stm32f10x_usart.o(i.USART_DMACmd)
    i.USART_GetFlagStatus                    0x08001cc0   Section        0  stm32f10x_usart.o(i.USART_GetFlagStatus)
    i.USART_GetITStatus                      0x08001cda   Section        0  stm32f10x_usart.o(i.USART_GetITStatus)
    i.USART_ITConfig                         0x08001d2e   Section        0  stm32f10x_usart.o(i.USART_ITConfig)
    i.USART_Init                             0x08001d78   Section        0  stm32f10x_usart.o(i.USART_Init)
    i.USART_ReceiveData                      0x08001e50   Section        0  stm32f10x_usart.o(i.USART_ReceiveData)
    i.USART_SendData                         0x08001e5a   Section        0  stm32f10x_usart.o(i.USART_SendData)
    i._Z17RCC_Configurationv                 0x08001e62   Section        0  main.o(i._Z17RCC_Configurationv)
    i._ZN11TaskManager4TimeEv                0x08001ecc   Section        0  taskmanager.o(i._ZN11TaskManager4TimeEv)
    i._ZN11TaskManager6DelaySEt              0x08001f5c   Section        0  taskmanager.o(i._ZN11TaskManager6DelaySEt)
    i._ZN11TaskManager7DelayMsEt             0x08001f94   Section        0  taskmanager.o(i._ZN11TaskManager7DelayMsEt)
    i._ZN11TaskManager9TimeSliceERdd         0x08001fd8   Section        0  taskmanager.o(i._ZN11TaskManager9TimeSliceERdd)
    i._ZN11TaskManagerC1Ev                   0x08002018   Section        0  taskmanager.o(i._ZN11TaskManagerC1Ev)
    i._ZN13Communication11CalibrationEPhih   0x0800203c   Section        0  communication.o(i._ZN13Communication11CalibrationEPhih)
    i._ZN13Communication13DataListeningEv    0x0800205e   Section        0  communication.o(i._ZN13Communication13DataListeningEv)
    i._ZN13CommunicationC1ER8NRF24L01        0x0800228a   Section        0  communication.o(i._ZN13CommunicationC1ER8NRF24L01)
    i._ZN19AttitudeCalculation20NonlinearSO3AHRSinitEffffff 0x080022aa   Section        0  attitude.o(i._ZN19AttitudeCalculation20NonlinearSO3AHRSinitEffffff)
    i._ZN19AttitudeCalculation22NonlinearSO3AHRSupdateEffffffffffff 0x080024f0   Section        0  attitude.o(i._ZN19AttitudeCalculation22NonlinearSO3AHRSupdateEffffffffffff)
    i._ZN19AttitudeCalculation8GetAngleE7Vector3IiES0_IfEf 0x08002e74   Section        0  attitude.o(i._ZN19AttitudeCalculation8GetAngleE7Vector3IiES0_IfEf)
    i._ZN3I2C10AddCommandEhhPhhS0_hbP6Sensor 0x08002ff8   Section        0  i2c.o(i._ZN3I2C10AddCommandEhhPhhS0_hbP6Sensor)
    i._ZN3I2C10Soft_ResetEv                  0x080030d6   Section        0  i2c.o(i._ZN3I2C10Soft_ResetEv)
    i._ZN3I2C11I2CGPIOInitEtt                0x080030f0   Section        0  i2c.o(i._ZN3I2C11I2CGPIOInitEtt)
    i._ZN3I2C12ClearCommandEv                0x0800314c   Section        0  i2c.o(i._ZN3I2C12ClearCommandEv)
    i._ZN3I2C12GetI2CNumberEv                0x0800315c   Section        0  i2c.o(i._ZN3I2C12GetI2CNumberEv)
    i._ZN3I2C13I2CGPIODeInitEtt              0x08003174   Section        0  i2c.o(i._ZN3I2C13I2CGPIODeInitEtt)
    i._ZN3I2C13StartCMDQueueEv               0x080031a8   Section        0  i2c.o(i._ZN3I2C13StartCMDQueueEv)
    i._ZN3I2C18I2C_CHACK_BUSY_FIXEjtt        0x08003254   Section        0  i2c.o(i._ZN3I2C18I2C_CHACK_BUSY_FIXEjtt)
    i._ZN3I2C20WaitTransmitCompleteEbbb      0x08003318   Section        0  i2c.o(i._ZN3I2C20WaitTransmitCompleteEbbb)
    i._ZN3I2C4InitEv                         0x080033b0   Section        0  i2c.o(i._ZN3I2C4InitEv)
    i._ZN3I2C7DelayUsEj                      0x080035d8   Section        0  i2c.o(i._ZN3I2C7DelayUsEj)
    i._ZN3I2C8DmaRxIRQEv                     0x080035e8   Section        0  i2c.o(i._ZN3I2C8DmaRxIRQEv)
    i._ZN3I2C8DmaTxIRQEv                     0x08003654   Section        0  i2c.o(i._ZN3I2C8DmaTxIRQEv)
    i._ZN3I2C8ErrorIRQEv                     0x08003668   Section        0  i2c.o(i._ZN3I2C8ErrorIRQEv)
    i._ZN3I2C8EventIRQEv                     0x080036c4   Section        0  i2c.o(i._ZN3I2C8EventIRQEv)
    i._ZN3I2C8IsHealthEv                     0x08003b1c   Section        0  i2c.o(i._ZN3I2C8IsHealthEv)
    i._ZN3I2C8IsSendOkEv                     0x08003b2c   Section        0  i2c.o(i._ZN3I2C8IsSendOkEv)
    i._ZN3I2CC1Ehbjhhhhhhhh                  0x08003b50   Section        0  i2c.o(i._ZN3I2CC1Ehbjhhhhhhhh)
    i._ZN3IMU10IMU_FilterEv                  0x08003ca4   Section        0  imu.o(i._ZN3IMU10IMU_FilterEv)
    i._ZN3IMU13GyroCalibrateEv               0x08003e20   Section        0  imu.o(i._ZN3IMU13GyroCalibrateEv)
    i._ZN3IMU16GyroIsCalibratedEv            0x08003e2e   Section        0  imu.o(i._ZN3IMU16GyroIsCalibratedEv)
    i._ZN3IMU4initEv                         0x08003e3c   Section        0  imu.o(i._ZN3IMU4initEv)
    i._ZN3IMU9UpdateIMUEv                    0x08003ebc   Section        0  imu.o(i._ZN3IMU9UpdateIMUEv)
    i._ZN3IMUC1ER7mpu6050                    0x08003fa0   Section        0  imu.o(i._ZN3IMUC1ER7mpu6050)
    i._ZN3LED2OnEv                           0x0800401e   Section        0  led.o(i._ZN3LED2OnEv)
    i._ZN3LEDC1ER4GPIOb                      0x0800402c   Section        0  led.o(i._ZN3LEDC1ER4GPIOb)
    i._ZN3PWM10InitializeEP11TIM_TypeDefbbbbth 0x0800403c   Section        0  f103_pwm.o(i._ZN3PWM10InitializeEP11TIM_TypeDefbbbbth)
    i._ZN3PWM7SetDutyEffff                   0x080043cc   Section        0  f103_pwm.o(i._ZN3PWM7SetDutyEffff)
    i._ZN3PWM7SetDutyEhf                     0x08004478   Section        0  f103_pwm.o(i._ZN3PWM7SetDutyEhf)
    i._ZN3PWMC1EP11TIM_TypeDefbbbbth         0x08004538   Section        0  f103_pwm.o(i._ZN3PWMC1EP11TIM_TypeDefbbbbth)
    i._ZN3SPI17RCC_ConfigurationEv           0x08004564   Section        0  spi.o(i._ZN3SPI17RCC_ConfigurationEv)
    i._ZN3SPI6SPI_RWEh                       0x080045a0   Section        0  spi.o(i._ZN3SPI6SPI_RWEh)
    i._ZN3SPI6SpiIrqEv                       0x080045dc   Section        0  spi.o(i._ZN3SPI6SpiIrqEv)
    i._ZN3SPI8SendDataEPhj                   0x080046ac   Section        0  spi.o(i._ZN3SPI8SendDataEPhj)
    i._ZN3SPI8SetSpeedEh                     0x08004794   Section        0  spi.o(i._ZN3SPI8SetSpeedEh)
    i._ZN3SPI9SetCSNPinEh                    0x080047c0   Section        0  spi.o(i._ZN3SPI9SetCSNPinEh)
    i._ZN3SPIC1EP11SPI_TypeDefbhhhhh         0x080047d4   Section        0  spi.o(i._ZN3SPIC1EP11SPI_TypeDefbhhhhh)
    i._ZN3SPID1Ev                            0x08004b8c   Section        0  spi.o(i._ZN3SPID1Ev)
    i._ZN4GPIO17RCC_ConfigurationEv          0x08004bc0   Section        0  gpio.o(i._ZN4GPIO17RCC_ConfigurationEv)
    i._ZN4GPIO8GetLevelEv                    0x08004c60   Section        0  gpio.o(i._ZN4GPIO8GetLevelEv)
    i._ZN4GPIO8SetLevelEh                    0x08004c80   Section        0  gpio.o(i._ZN4GPIO8SetLevelEh)
    i._ZN4GPIOC1EP12GPIO_TypeDeft16GPIOMode_TypeDef17GPIOSpeed_TypeDef 0x08004cb0   Section        0  gpio.o(i._ZN4GPIOC1EP12GPIO_TypeDeft16GPIOMode_TypeDef17GPIOSpeed_TypeDef)
    i._ZN5Delay2UsEj                         0x08004cf4   Section        0  delay.o(i._ZN5Delay2UsEj)
    i._ZN5USART3IrqEv                        0x08004d30   Section        0  usart.o(i._ZN5USART3IrqEv)
    i._ZN5USART6DmaIrqEv                     0x08004e08   Section        0  usart.o(i._ZN5USART6DmaIrqEv)
    i._ZN5USART8SendDataEPhj                 0x08004e90   Section        0  usart.o(i._ZN5USART8SendDataEPhj)
    i._ZN5USARTC1Ehjbhhhhhttt                0x08004f68   Section        0  usart.o(i._ZN5USARTC1Ehjbhhhhhttt)
    i._ZN5USARTD1Ev                          0x0800530c   Section        0  usart.o(i._ZN5USARTD1Ev)
    i._ZN5USARTlsEPKc                        0x0800535c   Section        0  usart.o(i._ZN5USARTlsEPKc)
    i._ZN5USARTlsEd                          0x08005380   Section        0  usart.o(i._ZN5USARTlsEd)
    i._ZN5USARTlsEi                          0x0800544c   Section        0  usart.o(i._ZN5USARTlsEi)
    i._ZN5flashC1Ejb                         0x080054aa   Section        0  flash.o(i._ZN5flashC1Ejb)
    i._ZN6Sensor7UpdatedEv                   0x080054c0   Section        0  i2c.o(i._ZN6Sensor7UpdatedEv)
    i._ZN7Control12CtrlAttiRateE7Vector3IfES1_tttt 0x080054ec   Section        0  control.o(i._ZN7Control12CtrlAttiRateE7Vector3IfES1_tttt)
    i._ZN7ControlC1ER3PWMS1_                 0x08005864   Section        0  control.o(i._ZN7ControlC1ER3PWMS1_)
    i._ZN7mpu605010BypassModeEb              0x080058ac   Section        0  mpu6050.o(i._ZN7mpu605010BypassModeEb)
    i._ZN7mpu605012GetGyrDegreeEv            0x08005940   Section        0  mpu6050.o(i._ZN7mpu605012GetGyrDegreeEv)
    i._ZN7mpu605017GetUpdateIntervalEv       0x080059ac   Section        0  mpu6050.o(i._ZN7mpu605017GetUpdateIntervalEv)
    i._ZN7mpu605017IsGyroCalibratingEv       0x080059c4   Section        0  mpu6050.o(i._ZN7mpu605017IsGyroCalibratingEv)
    i._ZN7mpu605018StartGyroCalibrateEv      0x080059cc   Section        0  mpu6050.o(i._ZN7mpu605018StartGyroCalibrateEv)
    i._ZN7mpu60504InitEb                     0x080059d4   Section        0  mpu6050.o(i._ZN7mpu60504InitEb)
    i._ZN7mpu60506GetGyrEv                   0x08005b00   Section        0  mpu6050.o(i._ZN7mpu60506GetGyrEv)
    i._ZN7mpu60506UpdateEbP7Vector3IiES2_    0x08005b6c   Section        0  mpu6050.o(i._ZN7mpu60506UpdateEbP7Vector3IiES2_)
    i._ZN7mpu60509GetAccRawEv                0x08005e2c   Section        0  mpu6050.o(i._ZN7mpu60509GetAccRawEv)
    i._ZN7mpu60509GetGyrRawEv                0x08005e72   Section        0  mpu6050.o(i._ZN7mpu60509GetGyrRawEv)
    i._ZN7mpu60509GetHealthEv                0x08005e80   Section        0  mpu6050.o(i._ZN7mpu60509GetHealthEv)
    i._ZN7mpu6050C1ER3I2Ct                   0x08005eb6   Section        0  mpu6050.o(i._ZN7mpu6050C1ER3I2Ct)
    i._ZN7mpu6050D1Ev                        0x08005ef6   Section        0  mpu6050.o(i._ZN7mpu6050D1Ev)
    i._ZN8NRF24L0110NRF_CE_LOWEv             0x08005ef8   Section        0  nrf24l01.o(i._ZN8NRF24L0110NRF_CE_LOWEv)
    i._ZN8NRF24L0110SPI_NRF_RWEh             0x08005f08   Section        0  nrf24l01.o(i._ZN8NRF24L0110SPI_NRF_RWEh)
    i._ZN8NRF24L0111NRF_CE_HIGHEv            0x08005f1a   Section        0  nrf24l01.o(i._ZN8NRF24L0111NRF_CE_HIGHEv)
    i._ZN8NRF24L0111NRF_CSN_LOWEv            0x08005f2a   Section        0  nrf24l01.o(i._ZN8NRF24L0111NRF_CSN_LOWEv)
    i._ZN8NRF24L0111NRF_RX_ModeEv            0x08005f3c   Section        0  nrf24l01.o(i._ZN8NRF24L0111NRF_RX_ModeEv)
    i._ZN8NRF24L0111NRF_ReadBufEhPhh         0x08005fb8   Section        0  nrf24l01.o(i._ZN8NRF24L0111NRF_ReadBufEhPhh)
    i._ZN8NRF24L0111NRF_ReadRegEh            0x08005ff6   Section        0  nrf24l01.o(i._ZN8NRF24L0111NRF_ReadRegEh)
    i._ZN8NRF24L0112NRF_CSN_HIGHEv           0x0800601e   Section        0  nrf24l01.o(i._ZN8NRF24L0112NRF_CSN_HIGHEv)
    i._ZN8NRF24L0112NRF_SendDataEPhj         0x0800602e   Section        0  nrf24l01.o(i._ZN8NRF24L0112NRF_SendDataEPhj)
    i._ZN8NRF24L0112NRF_WriteBufEhPhh        0x08006044   Section        0  nrf24l01.o(i._ZN8NRF24L0112NRF_WriteBufEhPhh)
    i._ZN8NRF24L0112NRF_WriteRegEhh          0x08006076   Section        0  nrf24l01.o(i._ZN8NRF24L0112NRF_WriteRegEhh)
    i._ZN8NRF24L0115GetReceivedDataEPht      0x080060a4   Section        0  nrf24l01.o(i._ZN8NRF24L0115GetReceivedDataEPht)
    i._ZN8NRF24L0117ReceiveBufferSizeEv      0x080060cc   Section        0  nrf24l01.o(i._ZN8NRF24L0117ReceiveBufferSizeEv)
    i._ZN8NRF24L0118ClearReceiveBufferEv     0x080060da   Section        0  nrf24l01.o(i._ZN8NRF24L0118ClearReceiveBufferEv)
    i._ZN8NRF24L016IRQIrqEv                  0x080060e8   Section        0  nrf24l01.o(i._ZN8NRF24L016IRQIrqEv)
    i._ZN8NRF24L018SetCEPinEP12GPIO_TypeDeft 0x080061e4   Section        0  nrf24l01.o(i._ZN8NRF24L018SetCEPinEP12GPIO_TypeDeft)
    i._ZN8NRF24L019NRF_CheckEv               0x08006210   Section        0  nrf24l01.o(i._ZN8NRF24L019NRF_CheckEv)
    i._ZN8NRF24L019NRF_ResetEv               0x08006274   Section        0  nrf24l01.o(i._ZN8NRF24L019NRF_ResetEv)
    i._ZN8NRF24L019SetIRQPinEP12GPIO_TypeDeft 0x080062ae   Section        0  nrf24l01.o(i._ZN8NRF24L019SetIRQPinEP12GPIO_TypeDeft)
    i._ZN8NRF24L01C1ER3SPI                   0x0800632c   Section        0  nrf24l01.o(i._ZN8NRF24L01C1ER3SPI)
    i._ZSt4asinf                             0x080063b4   Section        0  attitude.o(i._ZSt4asinf)
    i._ZSt4fabsf                             0x080063c0   Section        0  control.o(i._ZSt4fabsf)
    i._ZSt4sqrtf                             0x080063c8   Section        0  attitude.o(i._ZSt4sqrtf)
    i._ZSt5atan2ff                           0x080063d4   Section        0  attitude.o(i._ZSt5atan2ff)
    i.__ARM_fpclassifyf                      0x080063e4   Section        0  fpclassifyf.o(i.__ARM_fpclassifyf)
    i.__cxa_guard_acquire                    0x0800640a   Section        0  cxa_guard_acquire.o(i.__cxa_guard_acquire)
    i.__mathlib_flt_infnan                   0x0800641a   Section        0  funder.o(i.__mathlib_flt_infnan)
    i.__mathlib_flt_infnan2                  0x08006420   Section        0  funder.o(i.__mathlib_flt_infnan2)
    i.__mathlib_flt_invalid                  0x08006424   Section        0  funder.o(i.__mathlib_flt_invalid)
    i.__mathlib_flt_underflow                0x0800642c   Section        0  funder.o(i.__mathlib_flt_underflow)
    i.__mathlib_rredf2                       0x08006438   Section        0  rredf.o(i.__mathlib_rredf2)
    i.__scatterload_copy                     0x080065a0   Section       14  handlers.o(i.__scatterload_copy)
    i.__scatterload_null                     0x080065ae   Section        2  handlers.o(i.__scatterload_null)
    i.__scatterload_zeroinit                 0x080065b0   Section       14  handlers.o(i.__scatterload_zeroinit)
    i.__set_errno                            0x080065c0   Section        0  errno.o(i.__set_errno)
    i.__sti___15_TaskManager_cpp_tskmgr      0x080065cc   Section        0  taskmanager.o(i.__sti___15_TaskManager_cpp_tskmgr)
    __sti___15_TaskManager_cpp_tskmgr        0x080065cd   Thumb Code    10  taskmanager.o(i.__sti___15_TaskManager_cpp_tskmgr)
    i.__sti___8_main_cpp_iic                 0x080065dc   Section        0  main.o(i.__sti___8_main_cpp_iic)
    __sti___8_main_cpp_iic                   0x080065dd   Thumb Code   302  main.o(i.__sti___8_main_cpp_iic)
    i.asinf                                  0x08006770   Section        0  asinf.o(i.asinf)
    i.atan2f                                 0x08006894   Section        0  atan2f.o(i.atan2f)
    i.cosf                                   0x08006af0   Section        0  cosf.o(i.cosf)
    i.free                                   0x08006c6c   Section        0  malloc.o(i.free)
    i.main                                   0x08006cbc   Section        0  main.o(i.main)
    i.malloc                                 0x08006f58   Section        0  malloc.o(i.malloc)
    i.sinf                                   0x08006fc4   Section        0  sinf.o(i.sinf)
    i.sqrtf                                  0x0800714c   Section        0  sqrtf.o(i.sqrtf)
    t._ZN10FIFOBufferI18I2C_Command_StructLt40EE3GetERS0_ 0x08007178   Section        0  i2c.o(t._ZN10FIFOBufferI18I2C_Command_StructLt40EE3GetERS0_)
    t._ZN10FIFOBufferI18I2C_Command_StructLt40EE3PutERKS0_ 0x080071c4   Section        0  i2c.o(t._ZN10FIFOBufferI18I2C_Command_StructLt40EE3PutERKS0_)
    t._ZN10FIFOBufferI18I2C_Command_StructLt40EE4SizeEv 0x08007214   Section        0  i2c.o(t._ZN10FIFOBufferI18I2C_Command_StructLt40EE4SizeEv)
    t._ZN10FIFOBufferI18I2C_Command_StructLt40EE5ClearEv 0x0800721c   Section        0  i2c.o(t._ZN10FIFOBufferI18I2C_Command_StructLt40EE5ClearEv)
    t._ZN10FIFOBufferI18I2C_Command_StructLt40EEC1Ev 0x0800722c   Section        0  i2c.o(t._ZN10FIFOBufferI18I2C_Command_StructLt40EEC1Ev)
    t._ZN10FIFOBufferIhLt128EE3GetERh        0x08007242   Section        0  usart.o(t._ZN10FIFOBufferIhLt128EE3GetERh)
    t._ZN10FIFOBufferIhLt128EE3PutERKh       0x08007280   Section        0  usart.o(t._ZN10FIFOBufferIhLt128EE3PutERKh)
    t._ZN10FIFOBufferIhLt128EE4GetsEPht      0x080072c4   Section        0  usart.o(t._ZN10FIFOBufferIhLt128EE4GetsEPht)
    t._ZN10FIFOBufferIhLt128EE4PutsEPht      0x08007310   Section        0  usart.o(t._ZN10FIFOBufferIhLt128EE4PutsEPht)
    t._ZN10FIFOBufferIhLt128EE4SizeEv        0x08007362   Section        0  usart.o(t._ZN10FIFOBufferIhLt128EE4SizeEv)
    t._ZN10FIFOBufferIhLt128EEC1Ev           0x0800736a   Section        0  usart.o(t._ZN10FIFOBufferIhLt128EEC1Ev)
    t._ZN10FIFOBufferIhLt64EE3GetERh         0x0800737c   Section        0  spi.o(t._ZN10FIFOBufferIhLt64EE3GetERh)
    t._ZN10FIFOBufferIhLt64EE3PutERKh        0x080073ba   Section        0  spi.o(t._ZN10FIFOBufferIhLt64EE3PutERKh)
    t._ZN10FIFOBufferIhLt64EE4GetsEPht       0x080073fe   Section        0  spi.o(t._ZN10FIFOBufferIhLt64EE4GetsEPht)
    t._ZN10FIFOBufferIhLt64EE4PutsEPht       0x0800744a   Section        0  spi.o(t._ZN10FIFOBufferIhLt64EE4PutsEPht)
    t._ZN10FIFOBufferIhLt64EE4SizeEv         0x0800749c   Section        0  spi.o(t._ZN10FIFOBufferIhLt64EE4SizeEv)
    t._ZN10FIFOBufferIhLt64EE5ClearEv        0x080074a4   Section        0  spi.o(t._ZN10FIFOBufferIhLt64EE5ClearEv)
    t._ZN10FIFOBufferIhLt64EEC1Ev            0x080074b2   Section        0  spi.o(t._ZN10FIFOBufferIhLt64EEC1Ev)
    t._ZN7Vector3IfEC1Ev                     0x080074c4   Section        0  mpu6050.o(t._ZN7Vector3IfEC1Ev)
    t._ZN7Vector3IiEC1Ev                     0x080074ce   Section        0  hmc5883l.o(t._ZN7Vector3IiEC1Ev)
    t._ZN7Vector3IiEaSERKS0_                 0x080074d8   Section        0  mpu6050.o(t._ZN7Vector3IiEaSERKS0_)
    .constdata                               0x080074e6   Section       32  gpio.o(.constdata)
    .constdata                               0x08007508   Section       32  rredf.o(.constdata)
    twooverpi                                0x08007508   Data          32  rredf.o(.constdata)
    .init_array                              0x08007548   Section        4  taskmanager.o(.init_array)
    .init_array                              0x0800754c   Section        4  main.o(.init_array)
    .init_array                              0x08007550   Section        0  cpp_init.o(.init_array)
    .data                                    0x20000000   Section        5  i2c.o(.data)
    I2C_Status                               0x20000000   Data           4  i2c.o(.data)
    timeOut                                  0x20000004   Data           1  i2c.o(.data)
    .data                                    0x20000008   Section       32  interrupt.o(.data)
    .data                                    0x20000028   Section       32  taskmanager.o(.data)
    .data                                    0x20000048   Section        3  usart.o(.data)
    dataToSend                               0x20000048   Data           1  usart.o(.data)
    dataToSend                               0x20000049   Data           1  usart.o(.data)
    dataToSend                               0x2000004a   Data           1  usart.o(.data)
    .data                                    0x2000004b   Section        2  spi.o(.data)
    dataToSend                               0x2000004b   Data           1  spi.o(.data)
    dataToSend                               0x2000004c   Data           1  spi.o(.data)
    .data                                    0x2000004d   Section       10  nrf24l01.o(.data)
    .data                                    0x20000058   Section       26  mpu6050.o(.data)
    _ZGVgyroCalibrate_sum                    0x20000058   Data           4  mpu6050.o(.data)
    oldTime                                  0x20000060   Data           8  mpu6050.o(.data)
    timeNow                                  0x20000068   Data           8  mpu6050.o(.data)
    gyroCalibrateCnt                         0x20000070   Data           2  mpu6050.o(.data)
    .data                                    0x20000074   Section       24  imu.o(.data)
    s_bufferCounterx                         0x20000074   Data           1  imu.o(.data)
    s_totalx                                 0x20000078   Data           4  imu.o(.data)
    s_bufferCountery                         0x2000007c   Data           1  imu.o(.data)
    s_totaly                                 0x20000080   Data           4  imu.o(.data)
    s_bufferCounterz                         0x20000084   Data           1  imu.o(.data)
    s_totalz                                 0x20000088   Data           4  imu.o(.data)
    .data                                    0x2000008c   Section       24  main.o(.data)
    .data                                    0x200000a4   Section       20  stm32f10x_rcc.o(.data)
    APBAHBPrescTable                         0x200000a4   Data          16  stm32f10x_rcc.o(.data)
    ADCPrescTable                            0x200000b4   Data           4  stm32f10x_rcc.o(.data)
    .data                                    0x200000b8   Section        4  errno.o(.data)
    _errno                                   0x200000b8   Data           4  errno.o(.data)
    .data                                    0x200000bc   Section        4  cpp_dtor.o(.data)
    ddtor_pointer                            0x200000bc   Data           4  cpp_dtor.o(.data)
    .data                                    0x200000c0   Section        4  mvars.o(.data)
    .data                                    0x200000c4   Section        4  mvars.o(.data)
    .bss                                     0x200000c8   Section       32  nrf24l01.o(.bss)
    dataToSend                               0x200000c8   Data          32  nrf24l01.o(.bss)
    .bss                                     0x200000e8   Section       12  mpu6050.o(.bss)
    gyroCalibrate_sum                        0x200000e8   Data          12  mpu6050.o(.bss)
    .bss                                     0x200000f4   Section       96  imu.o(.bss)
    s_resulttmpx                             0x200000f4   Data          32  imu.o(.bss)
    s_resulttmpy                             0x20000114   Data          32  imu.o(.bss)
    s_resulttmpz                             0x20000134   Data          32  imu.o(.bss)
    .bss                                     0x20000158   Section     2472  main.o(.bss)
    HEAP                                     0x20000b00   Section      512  startup_stm32f10x_md.o(HEAP)
    STACK                                    0x20000d00   Section     1024  startup_stm32f10x_md.o(STACK)

    Global Symbols

    Symbol Name                              Value     Ov Type        Size  Object(Section)

    BuildAttributes$$THM_ISAv4$P$D$K$B$S$PE$A:L22UL41UL21$X:L11$S22US41US21$IEEE1$IW$USESV6$~STKCKD$USESV7$~SHL$OTIME$ROPI$IEEEX$EBA8$UX$MICROLIB$REQ8$PRES8$EABIv2 0x00000000   Number         0  anon$$obj.o ABSOLUTE
    __ARM_use_no_argv                        0x00000000   Number         0  main.o ABSOLUTE
    __decompress                              - Undefined Weak Reference
    _clock_init                               - Undefined Weak Reference
    _microlib_exit                            - Undefined Weak Reference
    __Vectors_Size                           0x000000ec   Number         0  startup_stm32f10x_md.o ABSOLUTE
    __Vectors                                0x08000000   Data           4  startup_stm32f10x_md.o(RESET)
    __dso_handle                             0x08000000   Number         0  startup_stm32f10x_md.o(RESET)
    __Vectors_End                            0x080000ec   Data           0  startup_stm32f10x_md.o(RESET)
    __main                                   0x080000ed   Thumb Code     0  entry.o(.ARM.Collect$$$$00000000)
    _main_stk                                0x080000ed   Thumb Code     0  entry2.o(.ARM.Collect$$$$00000001)
    _main_scatterload                        0x080000f1   Thumb Code     0  entry5.o(.ARM.Collect$$$$00000004)
    __main_after_scatterload                 0x080000f5   Thumb Code     0  entry5.o(.ARM.Collect$$$$00000004)
    _main_clock                              0x080000f5   Thumb Code     0  entry7b.o(.ARM.Collect$$$$00000008)
    _main_cpp_init$empty                     0x080000f5   Thumb Code     0  entry8a.o(.ARM.Collect$$$$00000009)
    _main_cpp_init                           0x080000f9   Thumb Code     0  entry8b.o(.ARM.Collect$$$$0000000A)
    _main_init                               0x080000f9   Thumb Code     0  entry9a.o(.ARM.Collect$$$$0000000B)
    __rt_final_cpp                           0x08000101   Thumb Code     0  entry10a.o(.ARM.Collect$$$$0000000D)
    __rt_final_cpp$nonempty                  0x08000101   Thumb Code     0  entry10b.o(.ARM.Collect$$$$0000000E)
    __rt_final_exit                          0x08000105   Thumb Code     0  entry11a.o(.ARM.Collect$$$$0000000F)
    Reset_Handler                            0x08000109   Thumb Code     8  startup_stm32f10x_md.o(.text)
    NMI_Handler                              0x08000111   Thumb Code     2  startup_stm32f10x_md.o(.text)
    HardFault_Handler                        0x08000113   Thumb Code     2  startup_stm32f10x_md.o(.text)
    MemManage_Handler                        0x08000115   Thumb Code     2  startup_stm32f10x_md.o(.text)
    BusFault_Handler                         0x08000117   Thumb Code     2  startup_stm32f10x_md.o(.text)
    UsageFault_Handler                       0x08000119   Thumb Code     2  startup_stm32f10x_md.o(.text)
    SVC_Handler                              0x0800011b   Thumb Code     2  startup_stm32f10x_md.o(.text)
    DebugMon_Handler                         0x0800011d   Thumb Code     2  startup_stm32f10x_md.o(.text)
    PendSV_Handler                           0x0800011f   Thumb Code     2  startup_stm32f10x_md.o(.text)
    ADC1_2_IRQHandler                        0x08000123   Thumb Code     0  startup_stm32f10x_md.o(.text)
    CAN1_RX1_IRQHandler                      0x08000123   Thumb Code     0  startup_stm32f10x_md.o(.text)
    CAN1_SCE_IRQHandler                      0x08000123   Thumb Code     0  startup_stm32f10x_md.o(.text)
    DMA1_Channel1_IRQHandler                 0x08000123   Thumb Code     0  startup_stm32f10x_md.o(.text)
    DMA1_Channel3_IRQHandler                 0x08000123   Thumb Code     0  startup_stm32f10x_md.o(.text)
    EXTI0_IRQHandler                         0x08000123   Thumb Code     0  startup_stm32f10x_md.o(.text)
    EXTI15_10_IRQHandler                     0x08000123   Thumb Code     0  startup_stm32f10x_md.o(.text)
    EXTI1_IRQHandler                         0x08000123   Thumb Code     0  startup_stm32f10x_md.o(.text)
    EXTI3_IRQHandler                         0x08000123   Thumb Code     0  startup_stm32f10x_md.o(.text)
    EXTI4_IRQHandler                         0x08000123   Thumb Code     0  startup_stm32f10x_md.o(.text)
    EXTI9_5_IRQHandler                       0x08000123   Thumb Code     0  startup_stm32f10x_md.o(.text)
    FLASH_IRQHandler                         0x08000123   Thumb Code     0  startup_stm32f10x_md.o(.text)
    PVD_IRQHandler                           0x08000123   Thumb Code     0  startup_stm32f10x_md.o(.text)
    RCC_IRQHandler                           0x08000123   Thumb Code     0  startup_stm32f10x_md.o(.text)
    RTCAlarm_IRQHandler                      0x08000123   Thumb Code     0  startup_stm32f10x_md.o(.text)
    RTC_IRQHandler                           0x08000123   Thumb Code     0  startup_stm32f10x_md.o(.text)
    TAMPER_IRQHandler                        0x08000123   Thumb Code     0  startup_stm32f10x_md.o(.text)
    TIM1_BRK_IRQHandler                      0x08000123   Thumb Code     0  startup_stm32f10x_md.o(.text)
    TIM1_CC_IRQHandler                       0x08000123   Thumb Code     0  startup_stm32f10x_md.o(.text)
    TIM1_TRG_COM_IRQHandler                  0x08000123   Thumb Code     0  startup_stm32f10x_md.o(.text)
    TIM1_UP_IRQHandler                       0x08000123   Thumb Code     0  startup_stm32f10x_md.o(.text)
    TIM2_IRQHandler                          0x08000123   Thumb Code     0  startup_stm32f10x_md.o(.text)
    TIM3_IRQHandler                          0x08000123   Thumb Code     0  startup_stm32f10x_md.o(.text)
    TIM4_IRQHandler                          0x08000123   Thumb Code     0  startup_stm32f10x_md.o(.text)
    USBWakeUp_IRQHandler                     0x08000123   Thumb Code     0  startup_stm32f10x_md.o(.text)
    USB_HP_CAN1_TX_IRQHandler                0x08000123   Thumb Code     0  startup_stm32f10x_md.o(.text)
    USB_LP_CAN1_RX0_IRQHandler               0x08000123   Thumb Code     0  startup_stm32f10x_md.o(.text)
    WWDG_IRQHandler                          0x08000123   Thumb Code     0  startup_stm32f10x_md.o(.text)
    __aeabi_memcpy                           0x0800012d   Thumb Code    36  memcpya.o(.text)
    __aeabi_memcpy4                          0x0800012d   Thumb Code     0  memcpya.o(.text)
    __aeabi_memcpy8                          0x0800012d   Thumb Code     0  memcpya.o(.text)
    __aeabi_memset                           0x08000151   Thumb Code    14  memseta.o(.text)
    __aeabi_memset4                          0x08000151   Thumb Code     0  memseta.o(.text)
    __aeabi_memset8                          0x08000151   Thumb Code     0  memseta.o(.text)
    __aeabi_memclr                           0x0800015f   Thumb Code     4  memseta.o(.text)
    __aeabi_memclr4                          0x0800015f   Thumb Code     0  memseta.o(.text)
    __aeabi_memclr8                          0x0800015f   Thumb Code     0  memseta.o(.text)
    _memset$wrapper                          0x08000163   Thumb Code    18  memseta.o(.text)
    __cpp_initialize__aeabi_                 0x08000175   Thumb Code    22  cpp_init.o(.text)
    __aeabi_atexit                           0x08000195   Thumb Code    46  aeabi_atexit.o(.text)
    __aeabi_fadd                             0x080001c3   Thumb Code   164  fadd.o(.text)
    __aeabi_fsub                             0x08000267   Thumb Code     6  fadd.o(.text)
    __aeabi_frsub                            0x0800026d   Thumb Code     6  fadd.o(.text)
    __aeabi_fmul                             0x08000273   Thumb Code   100  fmul.o(.text)
    __aeabi_fdiv                             0x080002d7   Thumb Code   124  fdiv.o(.text)
    __aeabi_dadd                             0x08000353   Thumb Code   322  dadd.o(.text)
    __aeabi_dsub                             0x08000495   Thumb Code     6  dadd.o(.text)
    __aeabi_drsub                            0x0800049b   Thumb Code     6  dadd.o(.text)
    __aeabi_dmul                             0x080004a1   Thumb Code   228  dmul.o(.text)
    __aeabi_ddiv                             0x08000585   Thumb Code   222  ddiv.o(.text)
    __aeabi_i2f                              0x08000663   Thumb Code    18  fflti.o(.text)
    __aeabi_ui2f                             0x08000675   Thumb Code    10  ffltui.o(.text)
    __aeabi_i2d                              0x0800067f   Thumb Code    34  dflti.o(.text)
    __aeabi_ui2d                             0x080006a1   Thumb Code    26  dfltui.o(.text)
    __aeabi_f2iz                             0x080006bb   Thumb Code    50  ffixi.o(.text)
    __aeabi_f2uiz                            0x080006ed   Thumb Code    40  ffixui.o(.text)
    __aeabi_d2iz                             0x08000715   Thumb Code    62  dfixi.o(.text)
    __aeabi_d2uiz                            0x08000753   Thumb Code    50  dfixui.o(.text)
    __aeabi_f2d                              0x08000785   Thumb Code    38  f2d.o(.text)
    __aeabi_cdcmpeq                          0x080007ad   Thumb Code     0  cdcmple.o(.text)
    __aeabi_cdcmple                          0x080007ad   Thumb Code    48  cdcmple.o(.text)
    __aeabi_cdrcmple                         0x080007dd   Thumb Code    48  cdrcmple.o(.text)
    __aeabi_d2f                              0x0800080d   Thumb Code    56  d2f.o(.text)
    __aeabi_cfcmpeq                          0x08000845   Thumb Code     0  cfcmple.o(.text)
    __aeabi_cfcmple                          0x08000845   Thumb Code    20  cfcmple.o(.text)
    __aeabi_cfrcmple                         0x08000859   Thumb Code    20  cfrcmple.o(.text)
    __aeabi_llsl                             0x0800086d   Thumb Code    30  llshl.o(.text)
    _ll_shift_l                              0x0800086d   Thumb Code     0  llshl.o(.text)
    __aeabi_llsr                             0x0800088b   Thumb Code    32  llushr.o(.text)
    _ll_ushift_r                             0x0800088b   Thumb Code     0  llushr.o(.text)
    __aeabi_lasr                             0x080008ab   Thumb Code    36  llsshr.o(.text)
    _ll_sshift_r                             0x080008ab   Thumb Code     0  llsshr.o(.text)
    __I$use$fp                               0x080008cf   Thumb Code     0  iusefp.o(.text)
    __rt_ddtor_pointer_addr                  0x080008d1   Thumb Code     4  cpp_dtor.o(.text)
    __cxa_finalize                           0x080008d9   Thumb Code    66  cxa_finalize.o(.text)
    _float_round                             0x0800091b   Thumb Code    18  fepilogue.o(.text)
    _float_epilogue                          0x0800092d   Thumb Code    92  fepilogue.o(.text)
    __ARM_scalbnf                            0x08000989   Thumb Code    24  fscalb.o(.text)
    scalbnf                                  0x08000989   Thumb Code     0  fscalb.o(.text)
    _fsqrt                                   0x080009a1   Thumb Code    94  fsqrt.o(.text)
    _frnd                                    0x080009ff   Thumb Code    60  frnd.o(.text)
    _double_round                            0x08000a3b   Thumb Code    30  depilogue.o(.text)
    _double_epilogue                         0x08000a59   Thumb Code   156  depilogue.o(.text)
    __scatterload                            0x08000af5   Thumb Code    28  init.o(.text)
    __scatterload_rt2                        0x08000af5   Thumb Code     0  init.o(.text)
    __rt_lib_shutdown_cpp_2                  0x08000b19   Thumb Code     2  cpp_final.o(.text)
    DMA1_Channel2_IRQHandler                 0x08000b1d   Thumb Code    18  interrupt.o(i.DMA1_Channel2_IRQHandler)
    DMA1_Channel4_IRQHandler                 0x08000b35   Thumb Code    32  interrupt.o(i.DMA1_Channel4_IRQHandler)
    DMA1_Channel5_IRQHandler                 0x08000b5d   Thumb Code    18  interrupt.o(i.DMA1_Channel5_IRQHandler)
    DMA1_Channel6_IRQHandler                 0x08000b75   Thumb Code    18  interrupt.o(i.DMA1_Channel6_IRQHandler)
    DMA1_Channel7_IRQHandler                 0x08000b8d   Thumb Code    32  interrupt.o(i.DMA1_Channel7_IRQHandler)
    DMA_ClearFlag                            0x08000bb5   Thumb Code    18  stm32f10x_dma.o(i.DMA_ClearFlag)
    DMA_ClearITPendingBit                    0x08000bd1   Thumb Code    18  stm32f10x_dma.o(i.DMA_ClearITPendingBit)
    DMA_Cmd                                  0x08000bed   Thumb Code    24  stm32f10x_dma.o(i.DMA_Cmd)
    DMA_DeInit                               0x08000c05   Thumb Code   324  stm32f10x_dma.o(i.DMA_DeInit)
    DMA_GetCurrDataCounter                   0x08000d51   Thumb Code     8  stm32f10x_dma.o(i.DMA_GetCurrDataCounter)
    DMA_GetFlagStatus                        0x08000d59   Thumb Code    36  stm32f10x_dma.o(i.DMA_GetFlagStatus)
    DMA_ITConfig                             0x08000d85   Thumb Code    18  stm32f10x_dma.o(i.DMA_ITConfig)
    DMA_Init                                 0x08000d97   Thumb Code    60  stm32f10x_dma.o(i.DMA_Init)
    EXTI2_IRQHandler                         0x08000dd5   Thumb Code    12  interrupt.o(i.EXTI2_IRQHandler)
    EXTI_ClearITPendingBit                   0x08000de5   Thumb Code     6  stm32f10x_exti.o(i.EXTI_ClearITPendingBit)
    EXTI_GetITStatus                         0x08000df1   Thumb Code    34  stm32f10x_exti.o(i.EXTI_GetITStatus)
    EXTI_Init                                0x08000e19   Thumb Code   142  stm32f10x_exti.o(i.EXTI_Init)
    GPIO_EXTILineConfig                      0x08000ead   Thumb Code    60  stm32f10x_gpio.o(i.GPIO_EXTILineConfig)
    GPIO_Init                                0x08000eed   Thumb Code   278  stm32f10x_gpio.o(i.GPIO_Init)
    GPIO_PinRemapConfig                      0x08001005   Thumb Code   138  stm32f10x_gpio.o(i.GPIO_PinRemapConfig)
    GPIO_ReadInputDataBit                    0x08001095   Thumb Code    18  stm32f10x_gpio.o(i.GPIO_ReadInputDataBit)
    GPIO_ResetBits                           0x080010a7   Thumb Code     4  stm32f10x_gpio.o(i.GPIO_ResetBits)
    GPIO_SetBits                             0x080010ab   Thumb Code     4  stm32f10x_gpio.o(i.GPIO_SetBits)
    I2C1_ER_IRQHandler                       0x080010b1   Thumb Code    18  interrupt.o(i.I2C1_ER_IRQHandler)
    I2C1_EV_IRQHandler                       0x080010c9   Thumb Code    18  interrupt.o(i.I2C1_EV_IRQHandler)
    I2C2_ER_IRQHandler                       0x080010e1   Thumb Code    18  interrupt.o(i.I2C2_ER_IRQHandler)
    I2C2_EV_IRQHandler                       0x080010f9   Thumb Code    18  interrupt.o(i.I2C2_EV_IRQHandler)
    I2C_AcknowledgeConfig                    0x08001111   Thumb Code    24  stm32f10x_i2c.o(i.I2C_AcknowledgeConfig)
    I2C_GenerateSTART                        0x08001129   Thumb Code    24  stm32f10x_i2c.o(i.I2C_GenerateSTART)
    I2C_GenerateSTOP                         0x08001141   Thumb Code    24  stm32f10x_i2c.o(i.I2C_GenerateSTOP)
    I2C_GetFlagStatus                        0x08001159   Thumb Code    58  stm32f10x_i2c.o(i.I2C_GetFlagStatus)
    I2C_GetLastEvent                         0x08001193   Thumb Code    26  stm32f10x_i2c.o(i.I2C_GetLastEvent)
    I2C_Init                                 0x080011ad   Thumb Code   222  stm32f10x_i2c.o(i.I2C_Init)
    I2C_ReceiveData                          0x08001299   Thumb Code     8  stm32f10x_i2c.o(i.I2C_ReceiveData)
    I2C_Send7bitAddress                      0x080012a1   Thumb Code    18  stm32f10x_i2c.o(i.I2C_Send7bitAddress)
    I2C_SendData                             0x080012b3   Thumb Code     4  stm32f10x_i2c.o(i.I2C_SendData)
    NVIC_Init                                0x080012b9   Thumb Code   100  misc.o(i.NVIC_Init)
    NVIC_PriorityGroupConfig                 0x08001329   Thumb Code    10  misc.o(i.NVIC_PriorityGroupConfig)
    RCC_AHBPeriphClockCmd                    0x0800133d   Thumb Code    26  stm32f10x_rcc.o(i.RCC_AHBPeriphClockCmd)
    RCC_APB1PeriphClockCmd                   0x0800135d   Thumb Code    26  stm32f10x_rcc.o(i.RCC_APB1PeriphClockCmd)
    RCC_APB1PeriphResetCmd                   0x0800137d   Thumb Code    26  stm32f10x_rcc.o(i.RCC_APB1PeriphResetCmd)
    RCC_APB2PeriphClockCmd                   0x0800139d   Thumb Code    26  stm32f10x_rcc.o(i.RCC_APB2PeriphClockCmd)
    RCC_DeInit                               0x080013bd   Thumb Code    64  stm32f10x_rcc.o(i.RCC_DeInit)
    RCC_GetClocksFreq                        0x08001409   Thumb Code   192  stm32f10x_rcc.o(i.RCC_GetClocksFreq)
    RCC_GetFlagStatus                        0x080014dd   Thumb Code    56  stm32f10x_rcc.o(i.RCC_GetFlagStatus)
    RCC_GetSYSCLKSource                      0x08001519   Thumb Code    10  stm32f10x_rcc.o(i.RCC_GetSYSCLKSource)
    RCC_HCLKConfig                           0x08001529   Thumb Code    18  stm32f10x_rcc.o(i.RCC_HCLKConfig)
    RCC_HSEConfig                            0x08001541   Thumb Code    70  stm32f10x_rcc.o(i.RCC_HSEConfig)
    RCC_PCLK1Config                          0x0800158d   Thumb Code    18  stm32f10x_rcc.o(i.RCC_PCLK1Config)
    RCC_PCLK2Config                          0x080015a5   Thumb Code    20  stm32f10x_rcc.o(i.RCC_PCLK2Config)
    RCC_PLLCmd                               0x080015bd   Thumb Code     6  stm32f10x_rcc.o(i.RCC_PLLCmd)
    RCC_PLLConfig                            0x080015c9   Thumb Code    24  stm32f10x_rcc.o(i.RCC_PLLConfig)
    RCC_SYSCLKConfig                         0x080015e5   Thumb Code    18  stm32f10x_rcc.o(i.RCC_SYSCLKConfig)
    RCC_WaitForHSEStartUp                    0x080015fd   Thumb Code    56  stm32f10x_rcc.o(i.RCC_WaitForHSEStartUp)
    SPI1_IRQHandler                          0x08001635   Thumb Code    18  interrupt.o(i.SPI1_IRQHandler)
    SPI2_IRQHandler                          0x0800164d   Thumb Code    18  interrupt.o(i.SPI2_IRQHandler)
    SPI_Cmd                                  0x08001665   Thumb Code    24  stm32f10x_spi.o(i.SPI_Cmd)
    SPI_I2S_ClearFlag                        0x0800167d   Thumb Code     6  stm32f10x_spi.o(i.SPI_I2S_ClearFlag)
    SPI_I2S_ClearITPendingBit                0x08001683   Thumb Code    20  stm32f10x_spi.o(i.SPI_I2S_ClearITPendingBit)
    SPI_I2S_DMACmd                           0x08001697   Thumb Code    18  stm32f10x_spi.o(i.SPI_I2S_DMACmd)
    SPI_I2S_GetFlagStatus                    0x080016a9   Thumb Code    18  stm32f10x_spi.o(i.SPI_I2S_GetFlagStatus)
    SPI_I2S_GetITStatus                      0x080016bb   Thumb Code    52  stm32f10x_spi.o(i.SPI_I2S_GetITStatus)
    SPI_I2S_ITConfig                         0x080016ef   Thumb Code    32  stm32f10x_spi.o(i.SPI_I2S_ITConfig)
    SPI_I2S_ReceiveData                      0x0800170f   Thumb Code     6  stm32f10x_spi.o(i.SPI_I2S_ReceiveData)
    SPI_I2S_SendData                         0x08001715   Thumb Code     4  stm32f10x_spi.o(i.SPI_I2S_SendData)
    SPI_Init                                 0x08001719   Thumb Code    60  stm32f10x_spi.o(i.SPI_Init)
    SysTick_Handler                          0x0800183d   Thumb Code    20  taskmanager.o(i.SysTick_Handler)
    SystemInit                               0x0800185d   Thumb Code    78  system_stm32f10x.o(i.SystemInit)
    TIM_Cmd                                  0x080018bd   Thumb Code    24  stm32f10x_tim.o(i.TIM_Cmd)
    TIM_OC1Init                              0x080018d5   Thumb Code   132  stm32f10x_tim.o(i.TIM_OC1Init)
    TIM_OC1PreloadConfig                     0x0800196d   Thumb Code    18  stm32f10x_tim.o(i.TIM_OC1PreloadConfig)
    TIM_OC2Init                              0x08001981   Thumb Code   154  stm32f10x_tim.o(i.TIM_OC2Init)
    TIM_OC2PreloadConfig                     0x08001a25   Thumb Code    26  stm32f10x_tim.o(i.TIM_OC2PreloadConfig)
    TIM_OC3Init                              0x08001a41   Thumb Code   150  stm32f10x_tim.o(i.TIM_OC3Init)
    TIM_OC3PreloadConfig                     0x08001ae1   Thumb Code    18  stm32f10x_tim.o(i.TIM_OC3PreloadConfig)
    TIM_OC4Init                              0x08001af5   Thumb Code   114  stm32f10x_tim.o(i.TIM_OC4Init)
    TIM_OC4PreloadConfig                     0x08001b71   Thumb Code    26  stm32f10x_tim.o(i.TIM_OC4PreloadConfig)
    TIM_TimeBaseInit                         0x08001b8d   Thumb Code   122  stm32f10x_tim.o(i.TIM_TimeBaseInit)
    USART1_IRQHandler                        0x08001c31   Thumb Code    18  interrupt.o(i.USART1_IRQHandler)
    USART2_IRQHandler                        0x08001c49   Thumb Code    18  interrupt.o(i.USART2_IRQHandler)
    USART3_IRQHandler                        0x08001c61   Thumb Code    18  interrupt.o(i.USART3_IRQHandler)
    USART_ClearITPendingBit                  0x08001c79   Thumb Code    30  stm32f10x_usart.o(i.USART_ClearITPendingBit)
    USART_Cmd                                0x08001c97   Thumb Code    24  stm32f10x_usart.o(i.USART_Cmd)
    USART_DMACmd                             0x08001caf   Thumb Code    18  stm32f10x_usart.o(i.USART_DMACmd)
    USART_GetFlagStatus                      0x08001cc1   Thumb Code    26  stm32f10x_usart.o(i.USART_GetFlagStatus)
    USART_GetITStatus                        0x08001cdb   Thumb Code    84  stm32f10x_usart.o(i.USART_GetITStatus)
    USART_ITConfig                           0x08001d2f   Thumb Code    74  stm32f10x_usart.o(i.USART_ITConfig)
    USART_Init                               0x08001d79   Thumb Code   210  stm32f10x_usart.o(i.USART_Init)
    USART_ReceiveData                        0x08001e51   Thumb Code    10  stm32f10x_usart.o(i.USART_ReceiveData)
    USART_SendData                           0x08001e5b   Thumb Code     8  stm32f10x_usart.o(i.USART_SendData)
    RCC_Configuration()                      0x08001e63   Thumb Code   106  main.o(i._Z17RCC_Configurationv)
    TaskManager::Time()                      0x08001ecd   Thumb Code   110  taskmanager.o(i._ZN11TaskManager4TimeEv)
    TaskManager::DelayS(unsigned short)      0x08001f5d   Thumb Code    54  taskmanager.o(i._ZN11TaskManager6DelaySEt)
    TaskManager::DelayMs(unsigned short)     0x08001f95   Thumb Code    64  taskmanager.o(i._ZN11TaskManager7DelayMsEt)
    TaskManager::TimeSlice(double&, double)  0x08001fd9   Thumb Code    62  taskmanager.o(i._ZN11TaskManager9TimeSliceERdd)
    TaskManager::TaskManager()               0x08002019   Thumb Code    32  taskmanager.o(i._ZN11TaskManagerC1Ev)
    TaskManager::TaskManager__sub_object()   0x08002019   Thumb Code     0  taskmanager.o(i._ZN11TaskManagerC1Ev)
    Communication::Calibration(unsigned char*, int, unsigned char) 0x0800203d   Thumb Code    34  communication.o(i._ZN13Communication11CalibrationEPhih)
    Communication::DataListening()           0x0800205f   Thumb Code   556  communication.o(i._ZN13Communication13DataListeningEv)
    Communication::Communication(NRF24L01&)  0x0800228b   Thumb Code    32  communication.o(i._ZN13CommunicationC1ER8NRF24L01)
    Communication::Communication__sub_object(NRF24L01&) 0x0800228b   Thumb Code     0  communication.o(i._ZN13CommunicationC1ER8NRF24L01)
    AttitudeCalculation::NonlinearSO3AHRSinit(float, float, float, float, float, float) 0x080022ab   Thumb Code   582  attitude.o(i._ZN19AttitudeCalculation20NonlinearSO3AHRSinitEffffff)
    AttitudeCalculation::NonlinearSO3AHRSupdate(float, float, float, float, float, float, float, float, float, float, float, float) 0x080024f1   Thumb Code  2430  attitude.o(i._ZN19AttitudeCalculation22NonlinearSO3AHRSupdateEffffffffffff)
    AttitudeCalculation::GetAngle(Vector3<int>, Vector3<float>, float) 0x08002e75   Thumb Code   376  attitude.o(i._ZN19AttitudeCalculation8GetAngleE7Vector3IiES0_IfEf)
    I2C::AddCommand(unsigned char, unsigned char, unsigned char*, unsigned char, unsigned char*, unsigned char, bool, Sensor*) 0x08002ff9   Thumb Code   222  i2c.o(i._ZN3I2C10AddCommandEhhPhhS0_hbP6Sensor)
    I2C::Soft_Reset()                        0x080030d7   Thumb Code    26  i2c.o(i._ZN3I2C10Soft_ResetEv)
    I2C::I2CGPIOInit(unsigned short, unsigned short) 0x080030f1   Thumb Code    82  i2c.o(i._ZN3I2C11I2CGPIOInitEtt)
    I2C::ClearCommand()                      0x0800314d   Thumb Code    14  i2c.o(i._ZN3I2C12ClearCommandEv)
    I2C::GetI2CNumber()                      0x0800315d   Thumb Code    18  i2c.o(i._ZN3I2C12GetI2CNumberEv)
    I2C::I2CGPIODeInit(unsigned short, unsigned short) 0x08003175   Thumb Code    46  i2c.o(i._ZN3I2C13I2CGPIODeInitEtt)
    I2C::StartCMDQueue()                     0x080031a9   Thumb Code   170  i2c.o(i._ZN3I2C13StartCMDQueueEv)
    I2C::I2C_CHACK_BUSY_FIX(unsigned, unsigned short, unsigned short) 0x08003255   Thumb Code   192  i2c.o(i._ZN3I2C18I2C_CHACK_BUSY_FIXEjtt)
    I2C::WaitTransmitComplete(bool, bool, bool) 0x08003319   Thumb Code   152  i2c.o(i._ZN3I2C20WaitTransmitCompleteEbbb)
    I2C::Init()                              0x080033b1   Thumb Code   548  i2c.o(i._ZN3I2C4InitEv)
    I2C::DelayUs(unsigned)                   0x080035d9   Thumb Code    14  i2c.o(i._ZN3I2C7DelayUsEj)
    I2C::DmaRxIRQ()                          0x080035e9   Thumb Code   104  i2c.o(i._ZN3I2C8DmaRxIRQEv)
    I2C::DmaTxIRQ()                          0x08003655   Thumb Code    14  i2c.o(i._ZN3I2C8DmaTxIRQEv)
    I2C::ErrorIRQ()                          0x08003669   Thumb Code    92  i2c.o(i._ZN3I2C8ErrorIRQEv)
    I2C::EventIRQ()                          0x080036c5   Thumb Code  1100  i2c.o(i._ZN3I2C8EventIRQEv)
    I2C::IsHealth()                          0x08003b1d   Thumb Code    16  i2c.o(i._ZN3I2C8IsHealthEv)
    I2C::IsSendOk()                          0x08003b2d   Thumb Code    36  i2c.o(i._ZN3I2C8IsSendOkEv)
    I2C::I2C(unsigned char, bool, unsigned, unsigned char, unsigned char, unsigned char, unsigned char, unsigned char, unsigned char, unsigned char, unsigned char) 0x08003b51   Thumb Code   318  i2c.o(i._ZN3I2CC1Ehbjhhhhhhhh)
    I2C::I2C__sub_object(unsigned char, bool, unsigned, unsigned char, unsigned char, unsigned char, unsigned char, unsigned char, unsigned char, unsigned char, unsigned char) 0x08003b51   Thumb Code     0  i2c.o(i._ZN3I2CC1Ehbjhhhhhhhh)
    IMU::IMU_Filter()                        0x08003ca5   Thumb Code   344  imu.o(i._ZN3IMU10IMU_FilterEv)
    IMU::GyroCalibrate()                     0x08003e21   Thumb Code    14  imu.o(i._ZN3IMU13GyroCalibrateEv)
    IMU::GyroIsCalibrated()                  0x08003e2f   Thumb Code    12  imu.o(i._ZN3IMU16GyroIsCalibratedEv)
    IMU::init()                              0x08003e3d   Thumb Code    86  imu.o(i._ZN3IMU4initEv)
    IMU::UpdateIMU()                         0x08003ebd   Thumb Code   180  imu.o(i._ZN3IMU9UpdateIMUEv)
    IMU::IMU(mpu6050&)                       0x08003fa1   Thumb Code   126  imu.o(i._ZN3IMUC1ER7mpu6050)
    IMU::IMU__sub_object(mpu6050&)           0x08003fa1   Thumb Code     0  imu.o(i._ZN3IMUC1ER7mpu6050)
    LED::On()                                0x0800401f   Thumb Code    14  led.o(i._ZN3LED2OnEv)
    LED::LED(GPIO&, bool)                    0x0800402d   Thumb Code    16  led.o(i._ZN3LEDC1ER4GPIOb)
    LED::LED__sub_object(GPIO&, bool)        0x0800402d   Thumb Code     0  led.o(i._ZN3LEDC1ER4GPIOb)
    PWM::Initialize(TIM_TypeDef*, bool, bool, bool, bool, unsigned short, unsigned char) 0x0800403d   Thumb Code   846  f103_pwm.o(i._ZN3PWM10InitializeEP11TIM_TypeDefbbbbth)
    PWM::SetDuty(float, float, float, float) 0x080043cd   Thumb Code   166  f103_pwm.o(i._ZN3PWM7SetDutyEffff)
    PWM::SetDuty(unsigned char, float)       0x08004479   Thumb Code   188  f103_pwm.o(i._ZN3PWM7SetDutyEhf)
    PWM::PWM(TIM_TypeDef*, bool, bool, bool, bool, unsigned short, unsigned char) 0x08004539   Thumb Code    44  f103_pwm.o(i._ZN3PWMC1EP11TIM_TypeDefbbbbth)
    PWM::PWM__sub_object(TIM_TypeDef*, bool, bool, bool, bool, unsigned short, unsigned char) 0x08004539   Thumb Code     0  f103_pwm.o(i._ZN3PWMC1EP11TIM_TypeDefbbbbth)
    SPI::RCC_Configuration()                 0x08004565   Thumb Code    52  spi.o(i._ZN3SPI17RCC_ConfigurationEv)
    SPI::SPI_RW(unsigned char)               0x080045a1   Thumb Code    60  spi.o(i._ZN3SPI6SPI_RWEh)
    SPI::SpiIrq()                            0x080045dd   Thumb Code   202  spi.o(i._ZN3SPI6SpiIrqEv)
    SPI::SendData(unsigned char*, unsigned)  0x080046ad   Thumb Code   226  spi.o(i._ZN3SPI8SendDataEPhj)
    SPI::SetSpeed(unsigned char)             0x08004795   Thumb Code    38  spi.o(i._ZN3SPI8SetSpeedEh)
    SPI::SetCSNPin(unsigned char)            0x080047c1   Thumb Code    18  spi.o(i._ZN3SPI9SetCSNPinEh)
    SPI::SPI(SPI_TypeDef*, bool, unsigned char, unsigned char, unsigned char, unsigned char, unsigned char) 0x080047d5   Thumb Code   924  spi.o(i._ZN3SPIC1EP11SPI_TypeDefbhhhhh)
    SPI::SPI__sub_object(SPI_TypeDef*, bool, unsigned char, unsigned char, unsigned char, unsigned char, unsigned char) 0x080047d5   Thumb Code     0  spi.o(i._ZN3SPIC1EP11SPI_TypeDefbhhhhh)
    SPI::~SPI()                              0x08004b8d   Thumb Code    36  spi.o(i._ZN3SPID1Ev)
    SPI::~SPI__sub_object()                  0x08004b8d   Thumb Code     0  spi.o(i._ZN3SPID1Ev)
    GPIO::RCC_Configuration()                0x08004bc1   Thumb Code   130  gpio.o(i._ZN4GPIO17RCC_ConfigurationEv)
    GPIO::GetLevel()                         0x08004c61   Thumb Code    28  gpio.o(i._ZN4GPIO8GetLevelEv)
    GPIO::SetLevel(unsigned char)            0x08004c81   Thumb Code    42  gpio.o(i._ZN4GPIO8SetLevelEh)
    GPIO::GPIO(GPIO_TypeDef*, unsigned short, GPIOMode_TypeDef, GPIOSpeed_TypeDef) 0x08004cb1   Thumb Code    64  gpio.o(i._ZN4GPIOC1EP12GPIO_TypeDeft16GPIOMode_TypeDef17GPIOSpeed_TypeDef)
    GPIO::GPIO__sub_object(GPIO_TypeDef*, unsigned short, GPIOMode_TypeDef, GPIOSpeed_TypeDef) 0x08004cb1   Thumb Code     0  gpio.o(i._ZN4GPIOC1EP12GPIO_TypeDeft16GPIOMode_TypeDef17GPIOSpeed_TypeDef)
    Delay::Us(unsigned)                      0x08004cf5   Thumb Code    58  delay.o(i._ZN5Delay2UsEj)
    USART::Irq()                             0x08004d31   Thumb Code   208  usart.o(i._ZN5USART3IrqEv)
    USART::DmaIrq()                          0x08004e09   Thumb Code   136  usart.o(i._ZN5USART6DmaIrqEv)
    USART::SendData(unsigned char*, unsigned) 0x08004e91   Thumb Code   212  usart.o(i._ZN5USART8SendDataEPhj)
    USART::USART(unsigned char, unsigned, bool, unsigned char, unsigned char, unsigned char, unsigned char, unsigned char, unsigned short, unsigned short, unsigned short) 0x08004f69   Thumb Code   884  usart.o(i._ZN5USARTC1Ehjbhhhhhttt)
    USART::USART__sub_object(unsigned char, unsigned, bool, unsigned char, unsigned char, unsigned char, unsigned char, unsigned char, unsigned short, unsigned short, unsigned short) 0x08004f69   Thumb Code     0  usart.o(i._ZN5USARTC1Ehjbhhhhhttt)
    USART::~USART()                          0x0800530d   Thumb Code    54  usart.o(i._ZN5USARTD1Ev)
    USART::~USART__sub_object()              0x0800530d   Thumb Code     0  usart.o(i._ZN5USARTD1Ev)
    USART::operator <<(const char*)          0x0800535d   Thumb Code    36  usart.o(i._ZN5USARTlsEPKc)
    USART::operator <<(double)               0x08005381   Thumb Code   198  usart.o(i._ZN5USARTlsEd)
    USART::operator <<(int)                  0x0800544d   Thumb Code    94  usart.o(i._ZN5USARTlsEi)
    flash::flash(unsigned, bool)             0x080054ab   Thumb Code    22  flash.o(i._ZN5flashC1Ejb)
    flash::flash__sub_object(unsigned, bool) 0x080054ab   Thumb Code     0  flash.o(i._ZN5flashC1Ejb)
    Sensor::Updated()                        0x080054c1   Thumb Code    44  i2c.o(i._ZN6Sensor7UpdatedEv)
    Control::CtrlAttiRate(Vector3<float>, Vector3<float>, unsigned short, unsigned short, unsigned short, unsigned short) 0x080054ed   Thumb Code   862  control.o(i._ZN7Control12CtrlAttiRateE7Vector3IfES1_tttt)
    Control::Control(PWM&, PWM&)             0x08005865   Thumb Code    56  control.o(i._ZN7ControlC1ER3PWMS1_)
    Control::Control__sub_object(PWM&, PWM&) 0x08005865   Thumb Code     0  control.o(i._ZN7ControlC1ER3PWMS1_)
    mpu6050::BypassMode(bool)                0x080058ad   Thumb Code   148  mpu6050.o(i._ZN7mpu605010BypassModeEb)
    mpu6050::GetGyrDegree()                  0x08005941   Thumb Code    98  mpu6050.o(i._ZN7mpu605012GetGyrDegreeEv)
    mpu6050::GetUpdateInterval()             0x080059ad   Thumb Code    24  mpu6050.o(i._ZN7mpu605017GetUpdateIntervalEv)
    mpu6050::IsGyroCalibrating()             0x080059c5   Thumb Code     8  mpu6050.o(i._ZN7mpu605017IsGyroCalibratingEv)
    mpu6050::StartGyroCalibrate()            0x080059cd   Thumb Code     8  mpu6050.o(i._ZN7mpu605018StartGyroCalibrateEv)
    mpu6050::Init(bool)                      0x080059d5   Thumb Code   294  mpu6050.o(i._ZN7mpu60504InitEb)
    mpu6050::GetGyr()                        0x08005b01   Thumb Code    98  mpu6050.o(i._ZN7mpu60506GetGyrEv)
    mpu6050::Update(bool, Vector3<int>*, Vector3<int>*) 0x08005b6d   Thumb Code   670  mpu6050.o(i._ZN7mpu60506UpdateEbP7Vector3IiES2_)
    mpu6050::GetAccRaw()                     0x08005e2d   Thumb Code    70  mpu6050.o(i._ZN7mpu60509GetAccRawEv)
    mpu6050::GetGyrRaw()                     0x08005e73   Thumb Code    14  mpu6050.o(i._ZN7mpu60509GetGyrRawEv)
    mpu6050::GetHealth()                     0x08005e81   Thumb Code    54  mpu6050.o(i._ZN7mpu60509GetHealthEv)
    mpu6050::mpu6050(I2C&, unsigned short)   0x08005eb7   Thumb Code    64  mpu6050.o(i._ZN7mpu6050C1ER3I2Ct)
    mpu6050::mpu6050__sub_object(I2C&, unsigned short) 0x08005eb7   Thumb Code     0  mpu6050.o(i._ZN7mpu6050C1ER3I2Ct)
    mpu6050::~mpu6050()                      0x08005ef7   Thumb Code     2  mpu6050.o(i._ZN7mpu6050D1Ev)
    mpu6050::~mpu6050__sub_object()          0x08005ef7   Thumb Code     0  mpu6050.o(i._ZN7mpu6050D1Ev)
    NRF24L01::NRF_CE_LOW()                   0x08005ef9   Thumb Code    16  nrf24l01.o(i._ZN8NRF24L0110NRF_CE_LOWEv)
    NRF24L01::SPI_NRF_RW(unsigned char)      0x08005f09   Thumb Code    18  nrf24l01.o(i._ZN8NRF24L0110SPI_NRF_RWEh)
    NRF24L01::NRF_CE_HIGH()                  0x08005f1b   Thumb Code    16  nrf24l01.o(i._ZN8NRF24L0111NRF_CE_HIGHEv)
    NRF24L01::NRF_CSN_LOW()                  0x08005f2b   Thumb Code    16  nrf24l01.o(i._ZN8NRF24L0111NRF_CSN_LOWEv)
    NRF24L01::NRF_RX_Mode()                  0x08005f3d   Thumb Code   120  nrf24l01.o(i._ZN8NRF24L0111NRF_RX_ModeEv)
    NRF24L01::NRF_ReadBuf(unsigned char, unsigned char*, unsigned char) 0x08005fb9   Thumb Code    62  nrf24l01.o(i._ZN8NRF24L0111NRF_ReadBufEhPhh)
    NRF24L01::NRF_ReadReg(unsigned char)     0x08005ff7   Thumb Code    40  nrf24l01.o(i._ZN8NRF24L0111NRF_ReadRegEh)
    NRF24L01::NRF_CSN_HIGH()                 0x0800601f   Thumb Code    16  nrf24l01.o(i._ZN8NRF24L0112NRF_CSN_HIGHEv)
    NRF24L01::NRF_SendData(unsigned char*, unsigned) 0x0800602f   Thumb Code    22  nrf24l01.o(i._ZN8NRF24L0112NRF_SendDataEPhj)
    NRF24L01::NRF_WriteBuf(unsigned char, unsigned char*, unsigned char) 0x08006045   Thumb Code    50  nrf24l01.o(i._ZN8NRF24L0112NRF_WriteBufEhPhh)
    NRF24L01::NRF_WriteReg(unsigned char, unsigned char) 0x08006077   Thumb Code    46  nrf24l01.o(i._ZN8NRF24L0112NRF_WriteRegEhh)
    NRF24L01::GetReceivedData(unsigned char*, unsigned short) 0x080060a5   Thumb Code    40  nrf24l01.o(i._ZN8NRF24L0115GetReceivedDataEPht)
    NRF24L01::ReceiveBufferSize()            0x080060cd   Thumb Code    14  nrf24l01.o(i._ZN8NRF24L0117ReceiveBufferSizeEv)
    NRF24L01::ClearReceiveBuffer()           0x080060db   Thumb Code    14  nrf24l01.o(i._ZN8NRF24L0118ClearReceiveBufferEv)
    NRF24L01::IRQIrq()                       0x080060e9   Thumb Code   248  nrf24l01.o(i._ZN8NRF24L016IRQIrqEv)
    NRF24L01::SetCEPin(GPIO_TypeDef*, unsigned short) 0x080061e5   Thumb Code    44  nrf24l01.o(i._ZN8NRF24L018SetCEPinEP12GPIO_TypeDeft)
    NRF24L01::NRF_Check()                    0x08006211   Thumb Code    90  nrf24l01.o(i._ZN8NRF24L019NRF_CheckEv)
    NRF24L01::NRF_Reset()                    0x08006275   Thumb Code    58  nrf24l01.o(i._ZN8NRF24L019NRF_ResetEv)
    NRF24L01::SetIRQPin(GPIO_TypeDef*, unsigned short) 0x080062af   Thumb Code   124  nrf24l01.o(i._ZN8NRF24L019SetIRQPinEP12GPIO_TypeDeft)
    NRF24L01::NRF24L01(SPI&)                 0x0800632d   Thumb Code   126  nrf24l01.o(i._ZN8NRF24L01C1ER3SPI)
    NRF24L01::NRF24L01__sub_object(SPI&)     0x0800632d   Thumb Code     0  nrf24l01.o(i._ZN8NRF24L01C1ER3SPI)
    std::asin(float)                         0x080063b5   Thumb Code    12  attitude.o(i._ZSt4asinf)
    std::fabs(float)                         0x080063c1   Thumb Code     8  control.o(i._ZSt4fabsf)
    std::sqrt(float)                         0x080063c9   Thumb Code    12  attitude.o(i._ZSt4sqrtf)
    std::atan2(float, float)                 0x080063d5   Thumb Code    16  attitude.o(i._ZSt5atan2ff)
    __ARM_fpclassifyf                        0x080063e5   Thumb Code    38  fpclassifyf.o(i.__ARM_fpclassifyf)
    __cxa_guard_acquire                      0x0800640b   Thumb Code    16  cxa_guard_acquire.o(i.__cxa_guard_acquire)
    __mathlib_flt_infnan                     0x0800641b   Thumb Code     6  funder.o(i.__mathlib_flt_infnan)
    __mathlib_flt_infnan2                    0x08006421   Thumb Code     4  funder.o(i.__mathlib_flt_infnan2)
    __mathlib_flt_invalid                    0x08006425   Thumb Code     8  funder.o(i.__mathlib_flt_invalid)
    __mathlib_flt_underflow                  0x0800642d   Thumb Code    10  funder.o(i.__mathlib_flt_underflow)
    __mathlib_rredf2                         0x08006439   Thumb Code   344  rredf.o(i.__mathlib_rredf2)
    __scatterload_copy                       0x080065a1   Thumb Code    14  handlers.o(i.__scatterload_copy)
    __scatterload_null                       0x080065af   Thumb Code     2  handlers.o(i.__scatterload_null)
    __scatterload_zeroinit                   0x080065b1   Thumb Code    14  handlers.o(i.__scatterload_zeroinit)
    __set_errno                              0x080065c1   Thumb Code     6  errno.o(i.__set_errno)
    asinf                                    0x08006771   Thumb Code   254  asinf.o(i.asinf)
    atan2f                                   0x08006895   Thumb Code   528  atan2f.o(i.atan2f)
    cosf                                     0x08006af1   Thumb Code   328  cosf.o(i.cosf)
    free                                     0x08006c6d   Thumb Code    76  malloc.o(i.free)
    main                                     0x08006cbd   Thumb Code   500  main.o(i.main)
    malloc                                   0x08006f59   Thumb Code    92  malloc.o(i.malloc)
    sinf                                     0x08006fc5   Thumb Code   338  sinf.o(i.sinf)
    sqrtf                                    0x0800714d   Thumb Code    44  sqrtf.o(i.sqrtf)
    FIFOBuffer<I2C_Command_Struct, (unsigned short)40>::Get(I2C_Command_Struct&) 0x08007179   Thumb Code    76  i2c.o(t._ZN10FIFOBufferI18I2C_Command_StructLt40EE3GetERS0_)
    FIFOBuffer<I2C_Command_Struct, (unsigned short)40>::Put(const I2C_Command_Struct&) 0x080071c5   Thumb Code    80  i2c.o(t._ZN10FIFOBufferI18I2C_Command_StructLt40EE3PutERKS0_)
    FIFOBuffer<I2C_Command_Struct, (unsigned short)40>::Size() 0x08007215   Thumb Code     8  i2c.o(t._ZN10FIFOBufferI18I2C_Command_StructLt40EE4SizeEv)
    FIFOBuffer<I2C_Command_Struct, (unsigned short)40>::Clear() 0x0800721d   Thumb Code    16  i2c.o(t._ZN10FIFOBufferI18I2C_Command_StructLt40EE5ClearEv)
    FIFOBuffer<I2C_Command_Struct, (unsigned short)40>::FIFOBuffer() 0x0800722d   Thumb Code    22  i2c.o(t._ZN10FIFOBufferI18I2C_Command_StructLt40EEC1Ev)
    FIFOBuffer<I2C_Command_Struct, (unsigned short)40>::FIFOBuffer__sub_object() 0x0800722d   Thumb Code     0  i2c.o(t._ZN10FIFOBufferI18I2C_Command_StructLt40EEC1Ev)
    FIFOBuffer<unsigned char, (unsigned short)128>::Get(unsigned char&) 0x08007243   Thumb Code    62  usart.o(t._ZN10FIFOBufferIhLt128EE3GetERh)
    FIFOBuffer<unsigned char, (unsigned short)128>::Put(const unsigned char&) 0x08007281   Thumb Code    68  usart.o(t._ZN10FIFOBufferIhLt128EE3PutERKh)
    FIFOBuffer<unsigned char, (unsigned short)128>::Gets(unsigned char*, unsigned short) 0x080072c5   Thumb Code    76  usart.o(t._ZN10FIFOBufferIhLt128EE4GetsEPht)
    FIFOBuffer<unsigned char, (unsigned short)128>::Puts(unsigned char*, unsigned short) 0x08007311   Thumb Code    82  usart.o(t._ZN10FIFOBufferIhLt128EE4PutsEPht)
    FIFOBuffer<unsigned char, (unsigned short)128>::Size() 0x08007363   Thumb Code     8  usart.o(t._ZN10FIFOBufferIhLt128EE4SizeEv)
    FIFOBuffer<unsigned char, (unsigned short)128>::FIFOBuffer() 0x0800736b   Thumb Code    18  usart.o(t._ZN10FIFOBufferIhLt128EEC1Ev)
    FIFOBuffer<unsigned char, (unsigned short)128>::FIFOBuffer__sub_object() 0x0800736b   Thumb Code     0  usart.o(t._ZN10FIFOBufferIhLt128EEC1Ev)
    FIFOBuffer<unsigned char, (unsigned short)64>::Get(unsigned char&) 0x0800737d   Thumb Code    62  spi.o(t._ZN10FIFOBufferIhLt64EE3GetERh)
    FIFOBuffer<unsigned char, (unsigned short)64>::Put(const unsigned char&) 0x080073bb   Thumb Code    68  spi.o(t._ZN10FIFOBufferIhLt64EE3PutERKh)
    FIFOBuffer<unsigned char, (unsigned short)64>::Gets(unsigned char*, unsigned short) 0x080073ff   Thumb Code    76  spi.o(t._ZN10FIFOBufferIhLt64EE4GetsEPht)
    FIFOBuffer<unsigned char, (unsigned short)64>::Puts(unsigned char*, unsigned short) 0x0800744b   Thumb Code    82  spi.o(t._ZN10FIFOBufferIhLt64EE4PutsEPht)
    FIFOBuffer<unsigned char, (unsigned short)64>::Size() 0x0800749d   Thumb Code     8  spi.o(t._ZN10FIFOBufferIhLt64EE4SizeEv)
    FIFOBuffer<unsigned char, (unsigned short)64>::Clear() 0x080074a5   Thumb Code    14  spi.o(t._ZN10FIFOBufferIhLt64EE5ClearEv)
    FIFOBuffer<unsigned char, (unsigned short)64>::FIFOBuffer() 0x080074b3   Thumb Code    18  spi.o(t._ZN10FIFOBufferIhLt64EEC1Ev)
    FIFOBuffer<unsigned char, (unsigned short)64>::FIFOBuffer__sub_object() 0x080074b3   Thumb Code     0  spi.o(t._ZN10FIFOBufferIhLt64EEC1Ev)
    Vector3<float>::Vector3()                0x080074c5   Thumb Code    10  mpu6050.o(t._ZN7Vector3IfEC1Ev)
    Vector3<float>::Vector3__sub_object()    0x080074c5   Thumb Code     0  mpu6050.o(t._ZN7Vector3IfEC1Ev)
    Vector3<int>::Vector3()                  0x080074cf   Thumb Code    10  hmc5883l.o(t._ZN7Vector3IiEC1Ev)
    Vector3<int>::Vector3__sub_object()      0x080074cf   Thumb Code     0  hmc5883l.o(t._ZN7Vector3IiEC1Ev)
    Vector3<int>::operator =(const Vector3<int>&) 0x080074d9   Thumb Code    14  mpu6050.o(t._ZN7Vector3IiEaSERKS0_)
    GPIO::mPin                               0x080074e6   Data          32  gpio.o(.constdata)
    Region$$Table$$Base                      0x08007528   Number         0  anon$$obj.o(Region$$Table)
    Region$$Table$$Limit                     0x08007548   Number         0  anon$$obj.o(Region$$Table)
    SHT$$INIT_ARRAY$$Base                    0x08007548   Number         0  taskmanager.o(.init_array)
    SHT$$INIT_ARRAY$$Limit                   0x08007550   Number         0  cpp_init.o(.init_array)
    pUSART1                                  0x20000008   Data           4  interrupt.o(.data)
    pUSART2                                  0x2000000c   Data           4  interrupt.o(.data)
    pUSART3                                  0x20000010   Data           4  interrupt.o(.data)
    pI2C1                                    0x20000014   Data           4  interrupt.o(.data)
    pI2C2                                    0x20000018   Data           4  interrupt.o(.data)
    pSPI1                                    0x2000001c   Data           4  interrupt.o(.data)
    pSPI2                                    0x20000020   Data           4  interrupt.o(.data)
    pNRF                                     0x20000024   Data           4  interrupt.o(.data)
    tskmgr                                   0x20000028   Data           1  taskmanager.o(.data)
    TaskManager::_new_time                   0x20000030   Data           8  taskmanager.o(.data)
    TaskManager::_old_time                   0x20000038   Data           8  taskmanager.o(.data)
    TaskManager::_it_time                    0x20000040   Data           8  taskmanager.o(.data)
    TX_ADDRESS                               0x2000004d   Data           5  nrf24l01.o(.data)
    RX_ADDRESS                               0x20000052   Data           5  nrf24l01.o(.data)
    Red                                      0x2000008c   Data           8  main.o(.data)
    GRE                                      0x20000094   Data           8  main.o(.data)
    InfoStore                                0x2000009c   Data           8  main.o(.data)
    __microlib_freelist                      0x200000c0   Data           4  mvars.o(.data)
    __microlib_freelist_initialised          0x200000c4   Data           4  mvars.o(.data)
    iic                                      0x20000158   Data         908  main.o(.bss)
    mpu6050_                                 0x200004e8   Data          80  main.o(.bss)
    imu                                      0x20000538   Data         192  main.o(.bss)
    usart1                                   0x200005f8   Data         340  main.o(.bss)
    spi                                      0x2000074c   Data         236  main.o(.bss)
    nrf                                      0x20000838   Data         208  main.o(.bss)
    mCommunication                           0x20000908   Data          56  main.o(.bss)
    mMotor14                                 0x20000940   Data          40  main.o(.bss)
    mMotor2                                  0x20000968   Data          40  main.o(.bss)
    mControl                                 0x20000990   Data         344  main.o(.bss)
    ledRedGPIO                               0x20000ae8   Data          12  main.o(.bss)
    ledYewGPIO                               0x20000af4   Data          12  main.o(.bss)
    __heap_base                              0x20000b00   Data           0  startup_stm32f10x_md.o(HEAP)
    __heap_limit                             0x20000d00   Data           0  startup_stm32f10x_md.o(HEAP)
    __initial_sp                             0x20001100   Data           0  startup_stm32f10x_md.o(STACK)



==============================================================================

Memory Map of the image

  Image Entry point : 0x080000ed

  Load Region LR_IROM1 (Base: 0x08000000, Size: 0x00007618, Max: 0x00010000, ABSOLUTE)

    Execution Region ER_IROM1 (Base: 0x08000000, Size: 0x00007550, Max: 0x00010000, ABSOLUTE)

    Base Addr    Size         Type   Attr      Idx    E Section Name        Object

    0x08000000   0x000000ec   Data   RO         4297    RESET               startup_stm32f10x_md.o
    0x080000ec   0x00000000   Code   RO         4402  * .ARM.Collect$$$$00000000  mc_w.l(entry.o)
    0x080000ec   0x00000004   Code   RO         4502    .ARM.Collect$$$$00000001  mc_w.l(entry2.o)
    0x080000f0   0x00000004   Code   RO         4505    .ARM.Collect$$$$00000004  mc_w.l(entry5.o)
    0x080000f4   0x00000000   Code   RO         4507    .ARM.Collect$$$$00000008  mc_w.l(entry7b.o)
    0x080000f4   0x00000004   Code   RO         4508    .ARM.Collect$$$$00000009  mc_w.l(entry8a.o)
    0x080000f8   0x00000000   Code   RO         4509    .ARM.Collect$$$$0000000A  mc_w.l(entry8b.o)
    0x080000f8   0x00000008   Code   RO         4510    .ARM.Collect$$$$0000000B  mc_w.l(entry9a.o)
    0x08000100   0x00000000   Code   RO         4512    .ARM.Collect$$$$0000000D  mc_w.l(entry10a.o)
    0x08000100   0x00000004   Code   RO         4513    .ARM.Collect$$$$0000000E  mc_w.l(entry10b.o)
    0x08000104   0x00000000   Code   RO         4514    .ARM.Collect$$$$0000000F  mc_w.l(entry11a.o)
    0x08000104   0x00000004   Code   RO         4503    .ARM.Collect$$$$00002712  mc_w.l(entry2.o)
    0x08000108   0x00000024   Code   RO         4298    .text               startup_stm32f10x_md.o
    0x0800012c   0x00000024   Code   RO         4405    .text               mc_w.l(memcpya.o)
    0x08000150   0x00000024   Code   RO         4407    .text               mc_w.l(memseta.o)
    0x08000174   0x00000020   Code   RO         4414    .text               mc_w.l(cpp_init.o)
    0x08000194   0x0000002e   Code   RO         4416    .text               mc_w.l(aeabi_atexit.o)
    0x080001c2   0x000000b0   Code   RO         4418    .text               mf_w.l(fadd.o)
    0x08000272   0x00000064   Code   RO         4420    .text               mf_w.l(fmul.o)
    0x080002d6   0x0000007c   Code   RO         4422    .text               mf_w.l(fdiv.o)
    0x08000352   0x0000014e   Code   RO         4424    .text               mf_w.l(dadd.o)
    0x080004a0   0x000000e4   Code   RO         4426    .text               mf_w.l(dmul.o)
    0x08000584   0x000000de   Code   RO         4428    .text               mf_w.l(ddiv.o)
    0x08000662   0x00000012   Code   RO         4430    .text               mf_w.l(fflti.o)
    0x08000674   0x0000000a   Code   RO         4432    .text               mf_w.l(ffltui.o)
    0x0800067e   0x00000022   Code   RO         4434    .text               mf_w.l(dflti.o)
    0x080006a0   0x0000001a   Code   RO         4436    .text               mf_w.l(dfltui.o)
    0x080006ba   0x00000032   Code   RO         4438    .text               mf_w.l(ffixi.o)
    0x080006ec   0x00000028   Code   RO         4440    .text               mf_w.l(ffixui.o)
    0x08000714   0x0000003e   Code   RO         4442    .text               mf_w.l(dfixi.o)
    0x08000752   0x00000032   Code   RO         4444    .text               mf_w.l(dfixui.o)
    0x08000784   0x00000026   Code   RO         4446    .text               mf_w.l(f2d.o)
    0x080007aa   0x00000002   PAD
    0x080007ac   0x00000030   Code   RO         4448    .text               mf_w.l(cdcmple.o)
    0x080007dc   0x00000030   Code   RO         4450    .text               mf_w.l(cdrcmple.o)
    0x0800080c   0x00000038   Code   RO         4452    .text               mf_w.l(d2f.o)
    0x08000844   0x00000014   Code   RO         4454    .text               mf_w.l(cfcmple.o)
    0x08000858   0x00000014   Code   RO         4456    .text               mf_w.l(cfrcmple.o)
    0x0800086c   0x0000001e   Code   RO         4516    .text               mc_w.l(llshl.o)
    0x0800088a   0x00000020   Code   RO         4518    .text               mc_w.l(llushr.o)
    0x080008aa   0x00000024   Code   RO         4520    .text               mc_w.l(llsshr.o)
    0x080008ce   0x00000000   Code   RO         4557    .text               mc_w.l(iusefp.o)
    0x080008ce   0x00000002   PAD
    0x080008d0   0x00000008   Code   RO         4558    .text               mc_w.l(cpp_dtor.o)
    0x080008d8   0x00000042   Code   RO         4561    .text               mc_w.l(cxa_finalize.o)
    0x0800091a   0x0000006e   Code   RO         4563    .text               mf_w.l(fepilogue.o)
    0x08000988   0x00000018   Code   RO         4565    .text               mf_w.l(fscalb.o)
    0x080009a0   0x0000005e   Code   RO         4567    .text               mf_w.l(fsqrt.o)
    0x080009fe   0x0000003c   Code   RO         4569    .text               mf_w.l(frnd.o)
    0x08000a3a   0x000000ba   Code   RO         4571    .text               mf_w.l(depilogue.o)
    0x08000af4   0x00000024   Code   RO         4577    .text               mc_w.l(init.o)
    0x08000b18   0x00000002   Code   RO         4581    .text               mc_w.l(cpp_final.o)
    0x08000b1a   0x00000002   PAD
    0x08000b1c   0x00000018   Code   RO          416    i.DMA1_Channel2_IRQHandler  interrupt.o
    0x08000b34   0x00000028   Code   RO          417    i.DMA1_Channel4_IRQHandler  interrupt.o
    0x08000b5c   0x00000018   Code   RO          418    i.DMA1_Channel5_IRQHandler  interrupt.o
    0x08000b74   0x00000018   Code   RO          419    i.DMA1_Channel6_IRQHandler  interrupt.o
    0x08000b8c   0x00000028   Code   RO          420    i.DMA1_Channel7_IRQHandler  interrupt.o
    0x08000bb4   0x0000001c   Code   RO         2500    i.DMA_ClearFlag     stm32f10x_dma.o
    0x08000bd0   0x0000001c   Code   RO         2501    i.DMA_ClearITPendingBit  stm32f10x_dma.o
    0x08000bec   0x00000018   Code   RO         2502    i.DMA_Cmd           stm32f10x_dma.o
    0x08000c04   0x0000014c   Code   RO         2503    i.DMA_DeInit        stm32f10x_dma.o
    0x08000d50   0x00000008   Code   RO         2504    i.DMA_GetCurrDataCounter  stm32f10x_dma.o
    0x08000d58   0x0000002c   Code   RO         2505    i.DMA_GetFlagStatus  stm32f10x_dma.o
    0x08000d84   0x00000012   Code   RO         2507    i.DMA_ITConfig      stm32f10x_dma.o
    0x08000d96   0x0000003c   Code   RO         2508    i.DMA_Init          stm32f10x_dma.o
    0x08000dd2   0x00000002   PAD
    0x08000dd4   0x00000010   Code   RO          421    i.EXTI2_IRQHandler  interrupt.o
    0x08000de4   0x0000000c   Code   RO         2585    i.EXTI_ClearITPendingBit  stm32f10x_exti.o
    0x08000df0   0x00000028   Code   RO         2589    i.EXTI_GetITStatus  stm32f10x_exti.o
    0x08000e18   0x00000094   Code   RO         2590    i.EXTI_Init         stm32f10x_exti.o
    0x08000eac   0x00000040   Code   RO         2839    i.GPIO_EXTILineConfig  stm32f10x_gpio.o
    0x08000eec   0x00000116   Code   RO         2842    i.GPIO_Init         stm32f10x_gpio.o
    0x08001002   0x00000002   PAD
    0x08001004   0x00000090   Code   RO         2844    i.GPIO_PinRemapConfig  stm32f10x_gpio.o
    0x08001094   0x00000012   Code   RO         2846    i.GPIO_ReadInputDataBit  stm32f10x_gpio.o
    0x080010a6   0x00000004   Code   RO         2849    i.GPIO_ResetBits    stm32f10x_gpio.o
    0x080010aa   0x00000004   Code   RO         2850    i.GPIO_SetBits      stm32f10x_gpio.o
    0x080010ae   0x00000002   PAD
    0x080010b0   0x00000018   Code   RO          422    i.I2C1_ER_IRQHandler  interrupt.o
    0x080010c8   0x00000018   Code   RO          423    i.I2C1_EV_IRQHandler  interrupt.o
    0x080010e0   0x00000018   Code   RO          424    i.I2C2_ER_IRQHandler  interrupt.o
    0x080010f8   0x00000018   Code   RO          425    i.I2C2_EV_IRQHandler  interrupt.o
    0x08001110   0x00000018   Code   RO         2963    i.I2C_AcknowledgeConfig  stm32f10x_i2c.o
    0x08001128   0x00000018   Code   RO         2975    i.I2C_GenerateSTART  stm32f10x_i2c.o
    0x08001140   0x00000018   Code   RO         2976    i.I2C_GenerateSTOP  stm32f10x_i2c.o
    0x08001158   0x0000003a   Code   RO         2977    i.I2C_GetFlagStatus  stm32f10x_i2c.o
    0x08001192   0x0000001a   Code   RO         2979    i.I2C_GetLastEvent  stm32f10x_i2c.o
    0x080011ac   0x000000ec   Code   RO         2982    i.I2C_Init          stm32f10x_i2c.o
    0x08001298   0x00000008   Code   RO         2987    i.I2C_ReceiveData   stm32f10x_i2c.o
    0x080012a0   0x00000012   Code   RO         2989    i.I2C_Send7bitAddress  stm32f10x_i2c.o
    0x080012b2   0x00000004   Code   RO         2990    i.I2C_SendData      stm32f10x_i2c.o
    0x080012b6   0x00000002   PAD
    0x080012b8   0x00000070   Code   RO         2392    i.NVIC_Init         misc.o
    0x08001328   0x00000014   Code   RO         2393    i.NVIC_PriorityGroupConfig  misc.o
    0x0800133c   0x00000020   Code   RO         3179    i.RCC_AHBPeriphClockCmd  stm32f10x_rcc.o
    0x0800135c   0x00000020   Code   RO         3180    i.RCC_APB1PeriphClockCmd  stm32f10x_rcc.o
    0x0800137c   0x00000020   Code   RO         3181    i.RCC_APB1PeriphResetCmd  stm32f10x_rcc.o
    0x0800139c   0x00000020   Code   RO         3182    i.RCC_APB2PeriphClockCmd  stm32f10x_rcc.o
    0x080013bc   0x0000004c   Code   RO         3189    i.RCC_DeInit        stm32f10x_rcc.o
    0x08001408   0x000000d4   Code   RO         3190    i.RCC_GetClocksFreq  stm32f10x_rcc.o
    0x080014dc   0x0000003c   Code   RO         3191    i.RCC_GetFlagStatus  stm32f10x_rcc.o
    0x08001518   0x00000010   Code   RO         3193    i.RCC_GetSYSCLKSource  stm32f10x_rcc.o
    0x08001528   0x00000018   Code   RO         3194    i.RCC_HCLKConfig    stm32f10x_rcc.o
    0x08001540   0x0000004c   Code   RO         3195    i.RCC_HSEConfig     stm32f10x_rcc.o
    0x0800158c   0x00000018   Code   RO         3201    i.RCC_PCLK1Config   stm32f10x_rcc.o
    0x080015a4   0x00000018   Code   RO         3202    i.RCC_PCLK2Config   stm32f10x_rcc.o
    0x080015bc   0x0000000c   Code   RO         3203    i.RCC_PLLCmd        stm32f10x_rcc.o
    0x080015c8   0x0000001c   Code   RO         3204    i.RCC_PLLConfig     stm32f10x_rcc.o
    0x080015e4   0x00000018   Code   RO         3207    i.RCC_SYSCLKConfig  stm32f10x_rcc.o
    0x080015fc   0x00000038   Code   RO         3209    i.RCC_WaitForHSEStartUp  stm32f10x_rcc.o
    0x08001634   0x00000018   Code   RO          426    i.SPI1_IRQHandler   interrupt.o
    0x0800164c   0x00000018   Code   RO          427    i.SPI2_IRQHandler   interrupt.o
    0x08001664   0x00000018   Code   RO         3395    i.SPI_Cmd           stm32f10x_spi.o
    0x0800167c   0x00000006   Code   RO         3399    i.SPI_I2S_ClearFlag  stm32f10x_spi.o
    0x08001682   0x00000014   Code   RO         3400    i.SPI_I2S_ClearITPendingBit  stm32f10x_spi.o
    0x08001696   0x00000012   Code   RO         3401    i.SPI_I2S_DMACmd    stm32f10x_spi.o
    0x080016a8   0x00000012   Code   RO         3403    i.SPI_I2S_GetFlagStatus  stm32f10x_spi.o
    0x080016ba   0x00000034   Code   RO         3404    i.SPI_I2S_GetITStatus  stm32f10x_spi.o
    0x080016ee   0x00000020   Code   RO         3405    i.SPI_I2S_ITConfig  stm32f10x_spi.o
    0x0800170e   0x00000006   Code   RO         3406    i.SPI_I2S_ReceiveData  stm32f10x_spi.o
    0x08001714   0x00000004   Code   RO         3407    i.SPI_I2S_SendData  stm32f10x_spi.o
    0x08001718   0x0000003c   Code   RO         3408    i.SPI_Init          stm32f10x_spi.o
    0x08001754   0x00000008   Code   RO         4305    i.SetSysClock       system_stm32f10x.o
    0x0800175c   0x000000e0   Code   RO         4306    i.SetSysClockTo72   system_stm32f10x.o
    0x0800183c   0x00000020   Code   RO          555    i.SysTick_Handler   taskmanager.o
    0x0800185c   0x00000060   Code   RO         4308    i.SystemInit        system_stm32f10x.o
    0x080018bc   0x00000018   Code   RO         3562    i.TIM_Cmd           stm32f10x_tim.o
    0x080018d4   0x00000098   Code   RO         3591    i.TIM_OC1Init       stm32f10x_tim.o
    0x0800196c   0x00000012   Code   RO         3594    i.TIM_OC1PreloadConfig  stm32f10x_tim.o
    0x0800197e   0x00000002   PAD
    0x08001980   0x000000a4   Code   RO         3596    i.TIM_OC2Init       stm32f10x_tim.o
    0x08001a24   0x0000001a   Code   RO         3599    i.TIM_OC2PreloadConfig  stm32f10x_tim.o
    0x08001a3e   0x00000002   PAD
    0x08001a40   0x000000a0   Code   RO         3601    i.TIM_OC3Init       stm32f10x_tim.o
    0x08001ae0   0x00000012   Code   RO         3604    i.TIM_OC3PreloadConfig  stm32f10x_tim.o
    0x08001af2   0x00000002   PAD
    0x08001af4   0x0000007c   Code   RO         3606    i.TIM_OC4Init       stm32f10x_tim.o
    0x08001b70   0x0000001a   Code   RO         3608    i.TIM_OC4PreloadConfig  stm32f10x_tim.o
    0x08001b8a   0x00000002   PAD
    0x08001b8c   0x000000a4   Code   RO         3633    i.TIM_TimeBaseInit  stm32f10x_tim.o
    0x08001c30   0x00000018   Code   RO          428    i.USART1_IRQHandler  interrupt.o
    0x08001c48   0x00000018   Code   RO          429    i.USART2_IRQHandler  interrupt.o
    0x08001c60   0x00000018   Code   RO          430    i.USART3_IRQHandler  interrupt.o
    0x08001c78   0x0000001e   Code   RO         4107    i.USART_ClearITPendingBit  stm32f10x_usart.o
    0x08001c96   0x00000018   Code   RO         4110    i.USART_Cmd         stm32f10x_usart.o
    0x08001cae   0x00000012   Code   RO         4111    i.USART_DMACmd      stm32f10x_usart.o
    0x08001cc0   0x0000001a   Code   RO         4113    i.USART_GetFlagStatus  stm32f10x_usart.o
    0x08001cda   0x00000054   Code   RO         4114    i.USART_GetITStatus  stm32f10x_usart.o
    0x08001d2e   0x0000004a   Code   RO         4116    i.USART_ITConfig    stm32f10x_usart.o
    0x08001d78   0x000000d8   Code   RO         4117    i.USART_Init        stm32f10x_usart.o
    0x08001e50   0x0000000a   Code   RO         4124    i.USART_ReceiveData  stm32f10x_usart.o
    0x08001e5a   0x00000008   Code   RO         4127    i.USART_SendData    stm32f10x_usart.o
    0x08001e62   0x0000006a   Code   RO         2022    i._Z17RCC_Configurationv  main.o
    0x08001ecc   0x00000090   Code   RO          556    i._ZN11TaskManager4TimeEv  taskmanager.o
    0x08001f5c   0x00000036   Code   RO          557    i._ZN11TaskManager6DelaySEt  taskmanager.o
    0x08001f92   0x00000002   PAD
    0x08001f94   0x00000044   Code   RO          558    i._ZN11TaskManager7DelayMsEt  taskmanager.o
    0x08001fd8   0x0000003e   Code   RO          560    i._ZN11TaskManager9TimeSliceERdd  taskmanager.o
    0x08002016   0x00000002   PAD
    0x08002018   0x00000024   Code   RO          561    i._ZN11TaskManagerC1Ev  taskmanager.o
    0x0800203c   0x00000022   Code   RO         2246    i._ZN13Communication11CalibrationEPhih  communication.o
    0x0800205e   0x0000022c   Code   RO         2248    i._ZN13Communication13DataListeningEv  communication.o
    0x0800228a   0x00000020   Code   RO         2255    i._ZN13CommunicationC1ER8NRF24L01  communication.o
    0x080022aa   0x00000246   Code   RO         1843    i._ZN19AttitudeCalculation20NonlinearSO3AHRSinitEffffff  attitude.o
    0x080024f0   0x00000984   Code   RO         1844    i._ZN19AttitudeCalculation22NonlinearSO3AHRSupdateEffffffffffff  attitude.o
    0x08002e74   0x00000184   Code   RO         1846    i._ZN19AttitudeCalculation8GetAngleE7Vector3IiES0_IfEf  attitude.o
    0x08002ff8   0x000000de   Code   RO          212    i._ZN3I2C10AddCommandEhhPhhS0_hbP6Sensor  i2c.o
    0x080030d6   0x0000001a   Code   RO          213    i._ZN3I2C10Soft_ResetEv  i2c.o
    0x080030f0   0x0000005c   Code   RO          214    i._ZN3I2C11I2CGPIOInitEtt  i2c.o
    0x0800314c   0x0000000e   Code   RO          215    i._ZN3I2C12ClearCommandEv  i2c.o
    0x0800315a   0x00000002   PAD
    0x0800315c   0x00000018   Code   RO          216    i._ZN3I2C12GetI2CNumberEv  i2c.o
    0x08003174   0x00000034   Code   RO          217    i._ZN3I2C13I2CGPIODeInitEtt  i2c.o
    0x080031a8   0x000000aa   Code   RO          218    i._ZN3I2C13StartCMDQueueEv  i2c.o
    0x08003252   0x00000002   PAD
    0x08003254   0x000000c4   Code   RO          219    i._ZN3I2C18I2C_CHACK_BUSY_FIXEjtt  i2c.o
    0x08003318   0x00000098   Code   RO          220    i._ZN3I2C20WaitTransmitCompleteEbbb  i2c.o
    0x080033b0   0x00000228   Code   RO          221    i._ZN3I2C4InitEv    i2c.o
    0x080035d8   0x0000000e   Code   RO          224    i._ZN3I2C7DelayUsEj  i2c.o
    0x080035e6   0x00000002   PAD
    0x080035e8   0x0000006c   Code   RO          225    i._ZN3I2C8DmaRxIRQEv  i2c.o
    0x08003654   0x00000014   Code   RO          226    i._ZN3I2C8DmaTxIRQEv  i2c.o
    0x08003668   0x0000005c   Code   RO          227    i._ZN3I2C8ErrorIRQEv  i2c.o
    0x080036c4   0x00000458   Code   RO          228    i._ZN3I2C8EventIRQEv  i2c.o
    0x08003b1c   0x00000010   Code   RO          229    i._ZN3I2C8IsHealthEv  i2c.o
    0x08003b2c   0x00000024   Code   RO          230    i._ZN3I2C8IsSendOkEv  i2c.o
    0x08003b50   0x00000154   Code   RO          231    i._ZN3I2CC1Ehbjhhhhhhhh  i2c.o
    0x08003ca4   0x0000017c   Code   RO         1920    i._ZN3IMU10IMU_FilterEv  imu.o
    0x08003e20   0x0000000e   Code   RO         1922    i._ZN3IMU13GyroCalibrateEv  imu.o
    0x08003e2e   0x0000000c   Code   RO         1924    i._ZN3IMU16GyroIsCalibratedEv  imu.o
    0x08003e3a   0x00000002   PAD
    0x08003e3c   0x00000080   Code   RO         1926    i._ZN3IMU4initEv    imu.o
    0x08003ebc   0x000000e4   Code   RO         1927    i._ZN3IMU9UpdateIMUEv  imu.o
    0x08003fa0   0x0000007e   Code   RO         1928    i._ZN3IMUC1ER7mpu6050  imu.o
    0x0800401e   0x0000000e   Code   RO          914    i._ZN3LED2OnEv      led.o
    0x0800402c   0x00000010   Code   RO          920    i._ZN3LEDC1ER4GPIOb  led.o
    0x0800403c   0x00000390   Code   RO          105    i._ZN3PWM10InitializeEP11TIM_TypeDefbbbbth  f103_pwm.o
    0x080043cc   0x000000ac   Code   RO          106    i._ZN3PWM7SetDutyEffff  f103_pwm.o
    0x08004478   0x000000c0   Code   RO          107    i._ZN3PWM7SetDutyEhf  f103_pwm.o
    0x08004538   0x0000002c   Code   RO          108    i._ZN3PWMC1EP11TIM_TypeDefbbbbth  f103_pwm.o
    0x08004564   0x0000003c   Code   RO         1064    i._ZN3SPI17RCC_ConfigurationEv  spi.o
    0x080045a0   0x0000003c   Code   RO         1068    i._ZN3SPI6SPI_RWEh  spi.o
    0x080045dc   0x000000d0   Code   RO         1069    i._ZN3SPI6SpiIrqEv  spi.o
    0x080046ac   0x000000e8   Code   RO         1072    i._ZN3SPI8SendDataEPhj  spi.o
    0x08004794   0x0000002c   Code   RO         1073    i._ZN3SPI8SetSpeedEh  spi.o
    0x080047c0   0x00000012   Code   RO         1076    i._ZN3SPI9SetCSNPinEh  spi.o
    0x080047d2   0x00000002   PAD
    0x080047d4   0x000003b8   Code   RO         1077    i._ZN3SPIC1EP11SPI_TypeDefbhhhhh  spi.o
    0x08004b8c   0x00000034   Code   RO         1078    i._ZN3SPID1Ev       spi.o
    0x08004bc0   0x000000a0   Code   RO          151    i._ZN4GPIO17RCC_ConfigurationEv  gpio.o
    0x08004c60   0x00000020   Code   RO          153    i._ZN4GPIO8GetLevelEv  gpio.o
    0x08004c80   0x00000030   Code   RO          154    i._ZN4GPIO8SetLevelEh  gpio.o
    0x08004cb0   0x00000044   Code   RO          155    i._ZN4GPIOC1EP12GPIO_TypeDeft16GPIOMode_TypeDef17GPIOSpeed_TypeDef  gpio.o
    0x08004cf4   0x0000003a   Code   RO            6    i._ZN5Delay2UsEj    delay.o
    0x08004d2e   0x00000002   PAD
    0x08004d30   0x000000d8   Code   RO          722    i._ZN5USART3IrqEv   usart.o
    0x08004e08   0x00000088   Code   RO          723    i._ZN5USART6DmaIrqEv  usart.o
    0x08004e90   0x000000d8   Code   RO          728    i._ZN5USART8SendDataEPhj  usart.o
    0x08004f68   0x000003a4   Code   RO          729    i._ZN5USARTC1Ehjbhhhhhttt  usart.o
    0x0800530c   0x00000050   Code   RO          730    i._ZN5USARTD1Ev     usart.o
    0x0800535c   0x00000024   Code   RO          731    i._ZN5USARTlsEPKc   usart.o
    0x08005380   0x000000cc   Code   RO          733    i._ZN5USARTlsEd     usart.o
    0x0800544c   0x0000005e   Code   RO          734    i._ZN5USARTlsEi     usart.o
    0x080054aa   0x00000016   Code   RO         1450    i._ZN5flashC1Ejb    flash.o
    0x080054c0   0x0000002c   Code   RO          345    i._ZN6Sensor7UpdatedEv  i2c.o
    0x080054ec   0x00000378   Code   RO         2132    i._ZN7Control12CtrlAttiRateE7Vector3IfES1_tttt  control.o
    0x08005864   0x00000048   Code   RO         2138    i._ZN7ControlC1ER3PWMS1_  control.o
    0x080058ac   0x00000094   Code   RO         1689    i._ZN7mpu605010BypassModeEb  mpu6050.o
    0x08005940   0x0000006c   Code   RO         1691    i._ZN7mpu605012GetGyrDegreeEv  mpu6050.o
    0x080059ac   0x00000018   Code   RO         1693    i._ZN7mpu605017GetUpdateIntervalEv  mpu6050.o
    0x080059c4   0x00000008   Code   RO         1694    i._ZN7mpu605017IsGyroCalibratingEv  mpu6050.o
    0x080059cc   0x00000008   Code   RO         1696    i._ZN7mpu605018StartGyroCalibrateEv  mpu6050.o
    0x080059d4   0x0000012c   Code   RO         1699    i._ZN7mpu60504InitEb  mpu6050.o
    0x08005b00   0x0000006c   Code   RO         1701    i._ZN7mpu60506GetGyrEv  mpu6050.o
    0x08005b6c   0x000002c0   Code   RO         1702    i._ZN7mpu60506UpdateEbP7Vector3IiES2_  mpu6050.o
    0x08005e2c   0x00000046   Code   RO         1703    i._ZN7mpu60509GetAccRawEv  mpu6050.o
    0x08005e72   0x0000000e   Code   RO         1704    i._ZN7mpu60509GetGyrRawEv  mpu6050.o
    0x08005e80   0x00000036   Code   RO         1705    i._ZN7mpu60509GetHealthEv  mpu6050.o
    0x08005eb6   0x00000040   Code   RO         1706    i._ZN7mpu6050C1ER3I2Ct  mpu6050.o
    0x08005ef6   0x00000002   Code   RO         1707    i._ZN7mpu6050D1Ev   mpu6050.o
    0x08005ef8   0x00000010   Code   RO         1397    i._ZN8NRF24L0110NRF_CE_LOWEv  nrf24l01.o
    0x08005f08   0x00000012   Code   RO         1231    i._ZN8NRF24L0110SPI_NRF_RWEh  nrf24l01.o
    0x08005f1a   0x00000010   Code   RO         1409    i._ZN8NRF24L0111NRF_CE_HIGHEv  nrf24l01.o
    0x08005f2a   0x00000010   Code   RO         1403    i._ZN8NRF24L0111NRF_CSN_LOWEv  nrf24l01.o
    0x08005f3a   0x00000002   PAD
    0x08005f3c   0x0000007c   Code   RO         1232    i._ZN8NRF24L0111NRF_RX_ModeEv  nrf24l01.o
    0x08005fb8   0x0000003e   Code   RO         1233    i._ZN8NRF24L0111NRF_ReadBufEhPhh  nrf24l01.o
    0x08005ff6   0x00000028   Code   RO         1234    i._ZN8NRF24L0111NRF_ReadRegEh  nrf24l01.o
    0x0800601e   0x00000010   Code   RO         1391    i._ZN8NRF24L0112NRF_CSN_HIGHEv  nrf24l01.o
    0x0800602e   0x00000016   Code   RO         1236    i._ZN8NRF24L0112NRF_SendDataEPhj  nrf24l01.o
    0x08006044   0x00000032   Code   RO         1237    i._ZN8NRF24L0112NRF_WriteBufEhPhh  nrf24l01.o
    0x08006076   0x0000002e   Code   RO         1238    i._ZN8NRF24L0112NRF_WriteRegEhh  nrf24l01.o
    0x080060a4   0x00000028   Code   RO         1242    i._ZN8NRF24L0115GetReceivedDataEPht  nrf24l01.o
    0x080060cc   0x0000000e   Code   RO         1245    i._ZN8NRF24L0117ReceiveBufferSizeEv  nrf24l01.o
    0x080060da   0x0000000e   Code   RO         1246    i._ZN8NRF24L0118ClearReceiveBufferEv  nrf24l01.o
    0x080060e8   0x000000fc   Code   RO         1247    i._ZN8NRF24L016IRQIrqEv  nrf24l01.o
    0x080061e4   0x0000002c   Code   RO         1249    i._ZN8NRF24L018SetCEPinEP12GPIO_TypeDeft  nrf24l01.o
    0x08006210   0x00000064   Code   RO         1250    i._ZN8NRF24L019NRF_CheckEv  nrf24l01.o
    0x08006274   0x0000003a   Code   RO         1251    i._ZN8NRF24L019NRF_ResetEv  nrf24l01.o
    0x080062ae   0x0000007c   Code   RO         1252    i._ZN8NRF24L019SetIRQPinEP12GPIO_TypeDeft  nrf24l01.o
    0x0800632a   0x00000002   PAD
    0x0800632c   0x00000088   Code   RO         1253    i._ZN8NRF24L01C1ER3SPI  nrf24l01.o
    0x080063b4   0x0000000c   Code   RO         1882    i._ZSt4asinf        attitude.o
    0x080063c0   0x00000008   Code   RO         2197    i._ZSt4fabsf        control.o
    0x080063c8   0x0000000c   Code   RO         1876    i._ZSt4sqrtf        attitude.o
    0x080063d4   0x00000010   Code   RO         1870    i._ZSt5atan2ff      attitude.o
    0x080063e4   0x00000026   Code   RO         4482    i.__ARM_fpclassifyf  m_ws.l(fpclassifyf.o)
    0x0800640a   0x00000010   Code   RO         4348    i.__cxa_guard_acquire  cpprt_w.l(cxa_guard_acquire.o)
    0x0800641a   0x00000006   Code   RO         4485    i.__mathlib_flt_infnan  m_ws.l(funder.o)
    0x08006420   0x00000004   Code   RO         4486    i.__mathlib_flt_infnan2  m_ws.l(funder.o)
    0x08006424   0x00000008   Code   RO         4487    i.__mathlib_flt_invalid  m_ws.l(funder.o)
    0x0800642c   0x0000000a   Code   RO         4490    i.__mathlib_flt_underflow  m_ws.l(funder.o)
    0x08006436   0x00000002   PAD
    0x08006438   0x00000168   Code   RO         4499    i.__mathlib_rredf2  m_ws.l(rredf.o)
    0x080065a0   0x0000000e   Code   RO         4587    i.__scatterload_copy  mc_w.l(handlers.o)
    0x080065ae   0x00000002   Code   RO         4588    i.__scatterload_null  mc_w.l(handlers.o)
    0x080065b0   0x0000000e   Code   RO         4589    i.__scatterload_zeroinit  mc_w.l(handlers.o)
    0x080065be   0x00000002   PAD
    0x080065c0   0x0000000c   Code   RO         4552    i.__set_errno       mc_w.l(errno.o)
    0x080065cc   0x00000010   Code   RO          562    i.__sti___15_TaskManager_cpp_tskmgr  taskmanager.o
    0x080065dc   0x00000194   Code   RO         2023    i.__sti___8_main_cpp_iic  main.o
    0x08006770   0x00000124   Code   RO         4355    i.asinf             m_ws.l(asinf.o)
    0x08006894   0x0000025c   Code   RO         4371    i.atan2f            m_ws.l(atan2f.o)
    0x08006af0   0x0000017c   Code   RO         4379    i.cosf              m_ws.l(cosf.o)
    0x08006c6c   0x00000050   Code   RO         4522    i.free              mc_w.l(malloc.o)
    0x08006cbc   0x0000029c   Code   RO         2024    i.main              main.o
    0x08006f58   0x0000006c   Code   RO         4523    i.malloc            mc_w.l(malloc.o)
    0x08006fc4   0x00000188   Code   RO         4387    i.sinf              m_ws.l(sinf.o)
    0x0800714c   0x0000002c   Code   RO         4395    i.sqrtf             m_ws.l(sqrtf.o)
    0x08007178   0x0000004c   Code   RO          363    t._ZN10FIFOBufferI18I2C_Command_StructLt40EE3GetERS0_  i2c.o
    0x080071c4   0x00000050   Code   RO          357    t._ZN10FIFOBufferI18I2C_Command_StructLt40EE3PutERKS0_  i2c.o
    0x08007214   0x00000008   Code   RO          369    t._ZN10FIFOBufferI18I2C_Command_StructLt40EE4SizeEv  i2c.o
    0x0800721c   0x00000010   Code   RO          375    t._ZN10FIFOBufferI18I2C_Command_StructLt40EE5ClearEv  i2c.o
    0x0800722c   0x00000016   Code   RO          351    t._ZN10FIFOBufferI18I2C_Command_StructLt40EEC1Ev  i2c.o
    0x08007242   0x0000003e   Code   RO          871    t._ZN10FIFOBufferIhLt128EE3GetERh  usart.o
    0x08007280   0x00000044   Code   RO          865    t._ZN10FIFOBufferIhLt128EE3PutERKh  usart.o
    0x080072c4   0x0000004c   Code   RO          883    t._ZN10FIFOBufferIhLt128EE4GetsEPht  usart.o
    0x08007310   0x00000052   Code   RO          877    t._ZN10FIFOBufferIhLt128EE4PutsEPht  usart.o
    0x08007362   0x00000008   Code   RO          889    t._ZN10FIFOBufferIhLt128EE4SizeEv  usart.o
    0x0800736a   0x00000012   Code   RO          859    t._ZN10FIFOBufferIhLt128EEC1Ev  usart.o
    0x0800737c   0x0000003e   Code   RO         1194    t._ZN10FIFOBufferIhLt64EE3GetERh  spi.o
    0x080073ba   0x00000044   Code   RO         1188    t._ZN10FIFOBufferIhLt64EE3PutERKh  spi.o
    0x080073fe   0x0000004c   Code   RO         1206    t._ZN10FIFOBufferIhLt64EE4GetsEPht  spi.o
    0x0800744a   0x00000052   Code   RO         1200    t._ZN10FIFOBufferIhLt64EE4PutsEPht  spi.o
    0x0800749c   0x00000008   Code   RO         1212    t._ZN10FIFOBufferIhLt64EE4SizeEv  spi.o
    0x080074a4   0x0000000e   Code   RO         1218    t._ZN10FIFOBufferIhLt64EE5ClearEv  spi.o
    0x080074b2   0x00000012   Code   RO         1182    t._ZN10FIFOBufferIhLt64EEC1Ev  spi.o
    0x080074c4   0x0000000a   Code   RO         1823    t._ZN7Vector3IfEC1Ev  mpu6050.o
    0x080074ce   0x0000000a   Code   RO         1631    t._ZN7Vector3IiEC1Ev  hmc5883l.o
    0x080074d8   0x0000000e   Code   RO         1817    t._ZN7Vector3IiEaSERKS0_  mpu6050.o
    0x080074e6   0x00000020   Data   RO          162    .constdata          gpio.o
    0x08007506   0x00000002   PAD
    0x08007508   0x00000020   Data   RO         4500    .constdata          m_ws.l(rredf.o)
    0x08007528   0x00000020   Data   RO         4585    Region$$Table       anon$$obj.o
    0x08007548   0x00000004   Data   RO          572    .init_array         taskmanager.o
    0x0800754c   0x00000004   Data   RO         2030    .init_array         main.o
    0x08007550   0x00000000   Data   RO         4412    .init_array         mc_w.l(cpp_init.o)


    Execution Region RW_IRAM1 (Base: 0x20000000, Size: 0x00001100, Max: 0x00005000, ABSOLUTE)

    Base Addr    Size         Type   Attr      Idx    E Section Name        Object

    0x20000000   0x00000005   Data   RW          252    .data               i2c.o
    0x20000005   0x00000003   PAD
    0x20000008   0x00000020   Data   RW          446    .data               interrupt.o
    0x20000028   0x00000020   Data   RW          571    .data               taskmanager.o
    0x20000048   0x00000003   Data   RW          757    .data               usart.o
    0x2000004b   0x00000002   Data   RW         1097    .data               spi.o
    0x2000004d   0x0000000a   Data   RW         1279    .data               nrf24l01.o
    0x20000057   0x00000001   PAD
    0x20000058   0x0000001a   Data   RW         1728    .data               mpu6050.o
    0x20000072   0x00000002   PAD
    0x20000074   0x00000018   Data   RW         1939    .data               imu.o
    0x2000008c   0x00000018   Data   RW         2029    .data               main.o
    0x200000a4   0x00000014   Data   RW         3210    .data               stm32f10x_rcc.o
    0x200000b8   0x00000004   Data   RW         4553    .data               mc_w.l(errno.o)
    0x200000bc   0x00000004   Data   RW         4559    .data               mc_w.l(cpp_dtor.o)
    0x200000c0   0x00000004   Data   RW         4579    .data               mc_w.l(mvars.o)
    0x200000c4   0x00000004   Data   RW         4580    .data               mc_w.l(mvars.o)
    0x200000c8   0x00000020   Zero   RW         1278    .bss                nrf24l01.o
    0x200000e8   0x0000000c   Zero   RW         1727    .bss                mpu6050.o
    0x200000f4   0x00000060   Zero   RW         1938    .bss                imu.o
    0x20000154   0x00000004   PAD
    0x20000158   0x000009a8   Zero   RW         2028    .bss                main.o
    0x20000b00   0x00000200   Zero   RW         4296    HEAP                startup_stm32f10x_md.o
    0x20000d00   0x00000400   Zero   RW         4295    STACK               startup_stm32f10x_md.o


==============================================================================

Image component sizes


      Code (inc. data)   RO Data    RW Data    ZI Data      Debug   Object Name

      3446         24          0          0          0       8838   attitude.o
       622          0          0          0          0       4089   communication.o
       968         42          0          0          0       5911   control.o
        58          0          0          0          0     271076   delay.o
      1320         76          0          0          0       5020   f103_pwm.o
        22          0          0          0          0       1848   flash.o
       308         44         32          0          0       3564   gpio.o
        10          0          0          0          0       8772   hmc5883l.o
      3484         84          0          5          0      26440   i2c.o
       888        126          0         24         96      14232   imu.o
       384         92          0         32          0      11065   interrupt.o
        30          0          0          0          0       1828   led.o
      1178        270          4         24       2472      27030   main.o
       132         22          0          0          0     280915   misc.o
      1636         60          0         26         12      13532   mpu6050.o
      1208         28          0         10         32      15020   nrf24l01.o
      1954         70          0          2          0       9468   spi.o
        36          8        236          0       1536        812   startup_stm32f10x_md.o
       542         36          0          0          0       6570   stm32f10x_dma.o
       200         18          0          0          0       2288   stm32f10x_exti.o
       512         10          0          0          0       5396   stm32f10x_gpio.o
       422         14          0          0          0       7492   stm32f10x_i2c.o
       760        104          0         20          0      12267   stm32f10x_rcc.o
       240          0          0          0          0       7432   stm32f10x_spi.o
       876         92          0          0          0       7385   stm32f10x_tim.o
       490          6          0          0          0       7782   stm32f10x_usart.o
       328         28          0          0          0       2037   system_stm32f10x.o
       412         60          4         32          0       3943   taskmanager.o
      2228         92          0          3          0      10168   usart.o

    ----------------------------------------------------------------------
     24730       1406        310        184       4152     782220   Object Totals
         0          0         32          0          0          0   (incl. Generated)
        36          0          2          6          4          0   (incl. Padding)

    ----------------------------------------------------------------------

      Code (inc. data)   RO Data    RW Data    ZI Data      Debug   Library Member Name

        16          0          0          0          0         68   cxa_guard_acquire.o
       292         38          0          0          0        120   asinf.o
       604         76          0          0          0        116   atan2f.o
       380         52          0          0          0        124   cosf.o
        38          0          0          0          0         68   fpclassifyf.o
        28          0          0          0          0        272   funder.o
       360         16         32          0          0         88   rredf.o
       392         54          0          0          0        124   sinf.o
        44          0          0          0          0         80   sqrtf.o
        46          0          0          0          0         84   aeabi_atexit.o
         8          4          0          4          0         68   cpp_dtor.o
         2          0          0          0          0         68   cpp_final.o
        32         10          0          0          0         80   cpp_init.o
        66          0          0          0          0         84   cxa_finalize.o
         0          0          0          0          0          0   entry.o
         0          0          0          0          0          0   entry10a.o
         4          0          0          0          0          0   entry10b.o
         0          0          0          0          0          0   entry11a.o
         8          4          0          0          0          0   entry2.o
         4          0          0          0          0          0   entry5.o
         0          0          0          0          0          0   entry7b.o
         4          0          0          0          0          0   entry8a.o
         0          0          0          0          0          0   entry8b.o
         8          4          0          0          0          0   entry9a.o
        12          6          0          4          0         68   errno.o
        30          0          0          0          0          0   handlers.o
        36          8          0          0          0         68   init.o
         0          0          0          0          0          0   iusefp.o
        30          0          0          0          0         68   llshl.o
        36          0          0          0          0         68   llsshr.o
        32          0          0          0          0         68   llushr.o
       188         20          0          0          0        160   malloc.o
        36          0          0          0          0         68   memcpya.o
        36          0          0          0          0        108   memseta.o
         0          0          0          8          0          0   mvars.o
        48          0          0          0          0         68   cdcmple.o
        48          0          0          0          0         68   cdrcmple.o
        20          0          0          0          0         68   cfcmple.o
        20          0          0          0          0         68   cfrcmple.o
        56          0          0          0          0         88   d2f.o
       334          0          0          0          0        148   dadd.o
       222          0          0          0          0        100   ddiv.o
       186          0          0          0          0        176   depilogue.o
        62          0          0          0          0         80   dfixi.o
        50          0          0          0          0         76   dfixui.o
        34          0          0          0          0         76   dflti.o
        26          0          0          0          0         76   dfltui.o
       228          0          0          0          0         96   dmul.o
        38          0          0          0          0         68   f2d.o
       176          0          0          0          0        140   fadd.o
       124          0          0          0          0         88   fdiv.o
       110          0          0          0          0        168   fepilogue.o
        50          0          0          0          0         68   ffixi.o
        40          0          0          0          0         68   ffixui.o
        18          0          0          0          0         68   fflti.o
        10          0          0          0          0         68   ffltui.o
       100          0          0          0          0         76   fmul.o
        60          0          0          0          0         76   frnd.o
        24          0          0          0          0         68   fscalb.o
        94          0          0          0          0         96   fsqrt.o

    ----------------------------------------------------------------------
      4960        292         32         16          0       4360   Library Totals
        10          0          0          0          0          0   (incl. Padding)

    ----------------------------------------------------------------------

      Code (inc. data)   RO Data    RW Data    ZI Data      Debug   Library Name

        16          0          0          0          0         68   cpprt_w.l
      2138        236         32          0          0        992   m_ws.l
       618         56          0         16          0       1060   mc_w.l
      2178          0          0          0          0       2240   mf_w.l

    ----------------------------------------------------------------------
      4960        292         32         16          0       4360   Library Totals

    ----------------------------------------------------------------------

==============================================================================


      Code (inc. data)   RO Data    RW Data    ZI Data      Debug   

     29690       1698        342        200       4152     773056   Grand Totals
     29690       1698        342        200       4152     773056   ELF Image Totals
     29690       1698        342        200          0          0   ROM Totals

==============================================================================

    Total RO  Size (Code + RO Data)                30032 (  29.33kB)
    Total RW  Size (RW Data + ZI Data)              4352 (   4.25kB)
    Total ROM Size (Code + RO Data + RW Data)      30232 (  29.52kB)

==============================================================================

